	.text
	.file	"Runner.cpp"
                                        # Start of file scope inline assembly
	.globl	_ZSt21ios_base_library_initv

                                        # End of file scope inline assembly
	.globl	main                            # -- Begin function main
	.p2align	4, 0x90
	.type	main,@function
main:                                   # @main
.Lfunc_begin0:
	.cfi_startproc
	.cfi_personality 155, DW.ref.__gxx_personality_v0
	.cfi_lsda 27, .Lexception0
# %bb.0:
	pushq	%rbp
	.cfi_def_cfa_offset 16
	.cfi_offset %rbp, -16
	movq	%rsp, %rbp
	.cfi_def_cfa_register %rbp
	subq	$416, %rsp                      # imm = 0x1A0
	leaq	-8(%rbp), %rdi
	callq	_ZN13PrintObserverC2Ev
	leaq	.L.str(%rip), %rsi
	leaq	-16(%rbp), %rdi
	callq	_ZSt11make_uniqueI9ImuSensorJRA5_KcEENSt8__detail9_MakeUniqIT_E15__single_objectEDpOT0_
.Ltmp0:
	leaq	.L.str.1(%rip), %rsi
	leaq	-24(%rbp), %rdi
	callq	_ZSt11make_uniqueI11FilteredImuJRA11_KcEENSt8__detail9_MakeUniqIT_E15__single_objectEDpOT0_
.Ltmp1:
	jmp	.LBB0_1
.LBB0_1:
.Ltmp3:
	leaq	.L.str.2(%rip), %rsi
	leaq	.L.str.3(%rip), %rdx
	leaq	-48(%rbp), %rdi
	callq	_ZSt11make_uniqueI12CameraSensorJRA4_KcRA8_S1_EENSt8__detail9_MakeUniqIT_E15__single_objectEDpOT0_
.Ltmp4:
	jmp	.LBB0_2
.LBB0_2:
	movl	$15, -60(%rbp)
.Ltmp6:
	leaq	.L.str.4(%rip), %rsi
	leaq	-56(%rbp), %rdi
	leaq	-60(%rbp), %rdx
	callq	_ZSt11make_uniqueI11LidarSensorJRA9_KciEENSt8__detail9_MakeUniqIT_E15__single_objectEDpOT0_
.Ltmp7:
	jmp	.LBB0_3
.LBB0_3:
	movl	$100, -76(%rbp)
.Ltmp9:
	leaq	.L.str.5(%rip), %rsi
	leaq	-72(%rbp), %rdi
	leaq	-76(%rbp), %rdx
	callq	_ZSt11make_uniqueI11LidarSensorJRA7_KciEENSt8__detail9_MakeUniqIT_E15__single_objectEDpOT0_
.Ltmp10:
	jmp	.LBB0_4
.LBB0_4:
	xorps	%xmm0, %xmm0
	movaps	%xmm0, -96(%rbp)
	movaps	%xmm0, -112(%rbp)
	leaq	-112(%rbp), %rdi
	movq	%rdi, -344(%rbp)                # 8-byte Spill
	callq	_ZN14SensorPipelineC2Ev
	leaq	-16(%rbp), %rdi
	callq	_ZSt4moveIRSt10unique_ptrI9ImuSensorSt14default_deleteIS1_EEEONSt16remove_referenceIT_E4typeEOS7_
	movq	%rax, %rsi
	leaq	-120(%rbp), %rdi
	movq	%rdi, -336(%rbp)                # 8-byte Spill
	callq	_ZNSt10unique_ptrI10SensorBaseSt14default_deleteIS0_EEC2I9ImuSensorS1_IS5_EvEEOS_IT_T0_E
	movq	-344(%rbp), %rdi                # 8-byte Reload
	movq	-336(%rbp), %rsi                # 8-byte Reload
.Ltmp12:
	callq	_ZN14SensorPipeline3addESt10unique_ptrI10SensorBaseSt14default_deleteIS1_EE
.Ltmp13:
	jmp	.LBB0_5
.LBB0_5:
	leaq	-120(%rbp), %rdi
	callq	_ZNSt10unique_ptrI10SensorBaseSt14default_deleteIS0_EED2Ev
	leaq	-24(%rbp), %rdi
	callq	_ZSt4moveIRSt10unique_ptrI11FilteredImuSt14default_deleteIS1_EEEONSt16remove_referenceIT_E4typeEOS7_
	movq	%rax, %rsi
	leaq	-128(%rbp), %rdi
	movq	%rdi, -352(%rbp)                # 8-byte Spill
	callq	_ZNSt10unique_ptrI10SensorBaseSt14default_deleteIS0_EEC2I11FilteredImuS1_IS5_EvEEOS_IT_T0_E
	movq	-352(%rbp), %rsi                # 8-byte Reload
.Ltmp15:
	leaq	-112(%rbp), %rdi
	callq	_ZN14SensorPipeline3addESt10unique_ptrI10SensorBaseSt14default_deleteIS1_EE
.Ltmp16:
	jmp	.LBB0_6
.LBB0_6:
	leaq	-128(%rbp), %rdi
	callq	_ZNSt10unique_ptrI10SensorBaseSt14default_deleteIS0_EED2Ev
	leaq	-48(%rbp), %rdi
	callq	_ZSt4moveIRSt10unique_ptrI12CameraSensorSt14default_deleteIS1_EEEONSt16remove_referenceIT_E4typeEOS7_
	movq	%rax, %rsi
	leaq	-136(%rbp), %rdi
	movq	%rdi, -360(%rbp)                # 8-byte Spill
	callq	_ZNSt10unique_ptrI10SensorBaseSt14default_deleteIS0_EEC2I12CameraSensorS1_IS5_EvEEOS_IT_T0_E
	movq	-360(%rbp), %rsi                # 8-byte Reload
.Ltmp18:
	leaq	-112(%rbp), %rdi
	callq	_ZN14SensorPipeline3addESt10unique_ptrI10SensorBaseSt14default_deleteIS1_EE
.Ltmp19:
	jmp	.LBB0_7
.LBB0_7:
	leaq	-136(%rbp), %rdi
	callq	_ZNSt10unique_ptrI10SensorBaseSt14default_deleteIS0_EED2Ev
	leaq	-56(%rbp), %rdi
	callq	_ZSt4moveIRSt10unique_ptrI11LidarSensorSt14default_deleteIS1_EEEONSt16remove_referenceIT_E4typeEOS7_
	movq	%rax, %rsi
	leaq	-144(%rbp), %rdi
	movq	%rdi, -368(%rbp)                # 8-byte Spill
	callq	_ZNSt10unique_ptrI10SensorBaseSt14default_deleteIS0_EEC2I11LidarSensorS1_IS5_EvEEOS_IT_T0_E
	movq	-368(%rbp), %rsi                # 8-byte Reload
.Ltmp21:
	leaq	-112(%rbp), %rdi
	callq	_ZN14SensorPipeline3addESt10unique_ptrI10SensorBaseSt14default_deleteIS1_EE
.Ltmp22:
	jmp	.LBB0_8
.LBB0_8:
	leaq	-144(%rbp), %rdi
	callq	_ZNSt10unique_ptrI10SensorBaseSt14default_deleteIS0_EED2Ev
	xorps	%xmm0, %xmm0
	movaps	%xmm0, -160(%rbp)
	movaps	%xmm0, -176(%rbp)
	leaq	-176(%rbp), %rdi
	movq	%rdi, -384(%rbp)                # 8-byte Spill
	callq	_ZN14SensorPipelineC2Ev
	leaq	-72(%rbp), %rdi
	callq	_ZSt4moveIRSt10unique_ptrI11LidarSensorSt14default_deleteIS1_EEEONSt16remove_referenceIT_E4typeEOS7_
	movq	%rax, %rsi
	leaq	-184(%rbp), %rdi
	movq	%rdi, -376(%rbp)                # 8-byte Spill
	callq	_ZNSt10unique_ptrI10SensorBaseSt14default_deleteIS0_EEC2I11LidarSensorS1_IS5_EvEEOS_IT_T0_E
	movq	-384(%rbp), %rdi                # 8-byte Reload
	movq	-376(%rbp), %rsi                # 8-byte Reload
.Ltmp24:
	callq	_ZN14SensorPipeline3addESt10unique_ptrI10SensorBaseSt14default_deleteIS1_EE
.Ltmp25:
	jmp	.LBB0_9
.LBB0_9:
	leaq	-184(%rbp), %rdi
	callq	_ZNSt10unique_ptrI10SensorBaseSt14default_deleteIS0_EED2Ev
	leaq	-176(%rbp), %rdi
	callq	_ZSt4moveIR14SensorPipelineEONSt16remove_referenceIT_E4typeEOS3_
	movq	%rax, %rsi
.Ltmp27:
	leaq	-112(%rbp), %rdi
	callq	_ZN14SensorPipeline5mergeEOS_
.Ltmp28:
	jmp	.LBB0_10
.LBB0_10:
.Ltmp29:
	leaq	-112(%rbp), %rdi
	callq	_ZN14SensorPipeline8tick_allEv
.Ltmp30:
	jmp	.LBB0_11
.LBB0_11:
.Ltmp31:
	leaq	-112(%rbp), %rdi
	callq	_ZNK14SensorPipeline6reportEv
.Ltmp32:
	jmp	.LBB0_12
.LBB0_12:
	leaq	.L.str.6(%rip), %rax
	movq	%rax, -224(%rbp)
	movq	$24, -232(%rbp)
	movl	$2, -240(%rbp)
.Ltmp33:
	leaq	-112(%rbp), %rdi
	leaq	-240(%rbp), %rsi
	callq	_ZNK14SensorPipeline13count_by_typeERK10SensorType
.Ltmp34:
	movl	%eax, -388(%rbp)                # 4-byte Spill
	jmp	.LBB0_13
.LBB0_13:
	movl	-388(%rbp), %eax                # 4-byte Reload
	movl	%eax, -236(%rbp)
	movq	-232(%rbp), %rsi
	movq	-224(%rbp), %rdx
.Ltmp35:
	leaq	-216(%rbp), %rdi
	leaq	-236(%rbp), %rcx
	callq	_ZSt6formatIJjEENSt7__cxx1112basic_stringIcSt11char_traitsIcESaIcEEESt19basic_format_stringIcJDpNSt13type_identityIT_E4typeEEEDpOS8_
.Ltmp36:
	jmp	.LBB0_14
.LBB0_14:
.Ltmp38:
	movq	_ZSt4cout@GOTPCREL(%rip), %rdi
	leaq	-216(%rbp), %rsi
	callq	_ZStlsIcSt11char_traitsIcESaIcEERSt13basic_ostreamIT_T0_ES7_RKNSt7__cxx1112basic_stringIS4_S5_T1_EE@PLT
.Ltmp39:
	jmp	.LBB0_15
.LBB0_15:
	leaq	-216(%rbp), %rdi
	callq	_ZNSt7__cxx1112basic_stringIcSt11char_traitsIcESaIcEED2Ev
	leaq	-112(%rbp), %rdi
	callq	_ZSt4moveIR14SensorPipelineEONSt16remove_referenceIT_E4typeEOS3_
	movq	%rax, %rsi
	leaq	-272(%rbp), %rdi
	movq	%rdi, -400(%rbp)                # 8-byte Spill
	callq	_ZN14SensorPipelineC2EOS_
	movq	-400(%rbp), %rdi                # 8-byte Reload
.Ltmp41:
	callq	_ZNK14SensorPipeline6reportEv
.Ltmp42:
	jmp	.LBB0_16
.LBB0_16:
	leaq	.L.str.7(%rip), %rax
	movq	%rax, -312(%rbp)
	movq	$22, -320(%rbp)
	movl	$0, -328(%rbp)
.Ltmp43:
	leaq	-112(%rbp), %rdi
	leaq	-328(%rbp), %rsi
	callq	_ZNK14SensorPipeline13count_by_typeERK10SensorType
.Ltmp44:
	movl	%eax, -404(%rbp)                # 4-byte Spill
	jmp	.LBB0_17
.LBB0_17:
	movl	-404(%rbp), %eax                # 4-byte Reload
	movl	%eax, -324(%rbp)
	movq	-320(%rbp), %rsi
	movq	-312(%rbp), %rdx
.Ltmp45:
	leaq	-304(%rbp), %rdi
	leaq	-324(%rbp), %rcx
	callq	_ZSt6formatIJjEENSt7__cxx1112basic_stringIcSt11char_traitsIcESaIcEEESt19basic_format_stringIcJDpNSt13type_identityIT_E4typeEEEDpOS8_
.Ltmp46:
	jmp	.LBB0_18
.LBB0_18:
.Ltmp48:
	movq	_ZSt4cout@GOTPCREL(%rip), %rdi
	leaq	-304(%rbp), %rsi
	callq	_ZStlsIcSt11char_traitsIcESaIcEERSt13basic_ostreamIT_T0_ES7_RKNSt7__cxx1112basic_stringIS4_S5_T1_EE@PLT
.Ltmp49:
	jmp	.LBB0_19
.LBB0_19:
	leaq	-304(%rbp), %rdi
	callq	_ZNSt7__cxx1112basic_stringIcSt11char_traitsIcESaIcEED2Ev
	leaq	-272(%rbp), %rdi
	callq	_ZN14SensorPipelineD2Ev
	leaq	-176(%rbp), %rdi
	callq	_ZN14SensorPipelineD2Ev
	leaq	-112(%rbp), %rdi
	callq	_ZN14SensorPipelineD2Ev
	leaq	-72(%rbp), %rdi
	callq	_ZNSt10unique_ptrI11LidarSensorSt14default_deleteIS0_EED2Ev
	leaq	-56(%rbp), %rdi
	callq	_ZNSt10unique_ptrI11LidarSensorSt14default_deleteIS0_EED2Ev
	leaq	-48(%rbp), %rdi
	callq	_ZNSt10unique_ptrI12CameraSensorSt14default_deleteIS0_EED2Ev
	leaq	-24(%rbp), %rdi
	callq	_ZNSt10unique_ptrI11FilteredImuSt14default_deleteIS0_EED2Ev
	leaq	-16(%rbp), %rdi
	callq	_ZNSt10unique_ptrI9ImuSensorSt14default_deleteIS0_EED2Ev
	xorl	%eax, %eax
	addq	$416, %rsp                      # imm = 0x1A0
	popq	%rbp
	.cfi_def_cfa %rsp, 8
	retq
.LBB0_20:
	.cfi_def_cfa %rbp, 16
.Ltmp2:
	movq	%rax, %rcx
	movl	%edx, %eax
	movq	%rcx, -32(%rbp)
	movl	%eax, -36(%rbp)
	jmp	.LBB0_39
.LBB0_21:
.Ltmp5:
	movq	%rax, %rcx
	movl	%edx, %eax
	movq	%rcx, -32(%rbp)
	movl	%eax, -36(%rbp)
	jmp	.LBB0_38
.LBB0_22:
.Ltmp8:
	movq	%rax, %rcx
	movl	%edx, %eax
	movq	%rcx, -32(%rbp)
	movl	%eax, -36(%rbp)
	jmp	.LBB0_37
.LBB0_23:
.Ltmp11:
	movq	%rax, %rcx
	movl	%edx, %eax
	movq	%rcx, -32(%rbp)
	movl	%eax, -36(%rbp)
	jmp	.LBB0_36
.LBB0_24:
.Ltmp14:
	movq	%rax, %rcx
	movl	%edx, %eax
	movq	%rcx, -32(%rbp)
	movl	%eax, -36(%rbp)
	leaq	-120(%rbp), %rdi
	callq	_ZNSt10unique_ptrI10SensorBaseSt14default_deleteIS0_EED2Ev
	jmp	.LBB0_35
.LBB0_25:
.Ltmp17:
	movq	%rax, %rcx
	movl	%edx, %eax
	movq	%rcx, -32(%rbp)
	movl	%eax, -36(%rbp)
	leaq	-128(%rbp), %rdi
	callq	_ZNSt10unique_ptrI10SensorBaseSt14default_deleteIS0_EED2Ev
	jmp	.LBB0_35
.LBB0_26:
.Ltmp20:
	movq	%rax, %rcx
	movl	%edx, %eax
	movq	%rcx, -32(%rbp)
	movl	%eax, -36(%rbp)
	leaq	-136(%rbp), %rdi
	callq	_ZNSt10unique_ptrI10SensorBaseSt14default_deleteIS0_EED2Ev
	jmp	.LBB0_35
.LBB0_27:
.Ltmp23:
	movq	%rax, %rcx
	movl	%edx, %eax
	movq	%rcx, -32(%rbp)
	movl	%eax, -36(%rbp)
	leaq	-144(%rbp), %rdi
	callq	_ZNSt10unique_ptrI10SensorBaseSt14default_deleteIS0_EED2Ev
	jmp	.LBB0_35
.LBB0_28:
.Ltmp26:
	movq	%rax, %rcx
	movl	%edx, %eax
	movq	%rcx, -32(%rbp)
	movl	%eax, -36(%rbp)
	leaq	-184(%rbp), %rdi
	callq	_ZNSt10unique_ptrI10SensorBaseSt14default_deleteIS0_EED2Ev
	jmp	.LBB0_34
.LBB0_29:
.Ltmp37:
	movq	%rax, %rcx
	movl	%edx, %eax
	movq	%rcx, -32(%rbp)
	movl	%eax, -36(%rbp)
	jmp	.LBB0_34
.LBB0_30:
.Ltmp40:
	movq	%rax, %rcx
	movl	%edx, %eax
	movq	%rcx, -32(%rbp)
	movl	%eax, -36(%rbp)
	leaq	-216(%rbp), %rdi
	callq	_ZNSt7__cxx1112basic_stringIcSt11char_traitsIcESaIcEED2Ev
	jmp	.LBB0_34
.LBB0_31:
.Ltmp47:
	movq	%rax, %rcx
	movl	%edx, %eax
	movq	%rcx, -32(%rbp)
	movl	%eax, -36(%rbp)
	jmp	.LBB0_33
.LBB0_32:
.Ltmp50:
	movq	%rax, %rcx
	movl	%edx, %eax
	movq	%rcx, -32(%rbp)
	movl	%eax, -36(%rbp)
	leaq	-304(%rbp), %rdi
	callq	_ZNSt7__cxx1112basic_stringIcSt11char_traitsIcESaIcEED2Ev
.LBB0_33:
	leaq	-272(%rbp), %rdi
	callq	_ZN14SensorPipelineD2Ev
.LBB0_34:
	leaq	-176(%rbp), %rdi
	callq	_ZN14SensorPipelineD2Ev
.LBB0_35:
	leaq	-112(%rbp), %rdi
	callq	_ZN14SensorPipelineD2Ev
	leaq	-72(%rbp), %rdi
	callq	_ZNSt10unique_ptrI11LidarSensorSt14default_deleteIS0_EED2Ev
.LBB0_36:
	leaq	-56(%rbp), %rdi
	callq	_ZNSt10unique_ptrI11LidarSensorSt14default_deleteIS0_EED2Ev
.LBB0_37:
	leaq	-48(%rbp), %rdi
	callq	_ZNSt10unique_ptrI12CameraSensorSt14default_deleteIS0_EED2Ev
.LBB0_38:
	leaq	-24(%rbp), %rdi
	callq	_ZNSt10unique_ptrI11FilteredImuSt14default_deleteIS0_EED2Ev
.LBB0_39:
	leaq	-16(%rbp), %rdi
	callq	_ZNSt10unique_ptrI9ImuSensorSt14default_deleteIS0_EED2Ev
# %bb.40:
	movq	-32(%rbp), %rdi
	callq	_Unwind_Resume@PLT
.Lfunc_end0:
	.size	main, .Lfunc_end0-main
	.cfi_endproc
	.section	.gcc_except_table,"a",@progbits
	.p2align	2
GCC_except_table0:
.Lexception0:
	.byte	255                             # @LPStart Encoding = omit
	.byte	255                             # @TType Encoding = omit
	.byte	1                               # Call site Encoding = uleb128
	.uleb128 .Lcst_end0-.Lcst_begin0
.Lcst_begin0:
	.uleb128 .Lfunc_begin0-.Lfunc_begin0    # >> Call Site 1 <<
	.uleb128 .Ltmp0-.Lfunc_begin0           #   Call between .Lfunc_begin0 and .Ltmp0
	.byte	0                               #     has no landing pad
	.byte	0                               #   On action: cleanup
	.uleb128 .Ltmp0-.Lfunc_begin0           # >> Call Site 2 <<
	.uleb128 .Ltmp1-.Ltmp0                  #   Call between .Ltmp0 and .Ltmp1
	.uleb128 .Ltmp2-.Lfunc_begin0           #     jumps to .Ltmp2
	.byte	0                               #   On action: cleanup
	.uleb128 .Ltmp3-.Lfunc_begin0           # >> Call Site 3 <<
	.uleb128 .Ltmp4-.Ltmp3                  #   Call between .Ltmp3 and .Ltmp4
	.uleb128 .Ltmp5-.Lfunc_begin0           #     jumps to .Ltmp5
	.byte	0                               #   On action: cleanup
	.uleb128 .Ltmp6-.Lfunc_begin0           # >> Call Site 4 <<
	.uleb128 .Ltmp7-.Ltmp6                  #   Call between .Ltmp6 and .Ltmp7
	.uleb128 .Ltmp8-.Lfunc_begin0           #     jumps to .Ltmp8
	.byte	0                               #   On action: cleanup
	.uleb128 .Ltmp9-.Lfunc_begin0           # >> Call Site 5 <<
	.uleb128 .Ltmp10-.Ltmp9                 #   Call between .Ltmp9 and .Ltmp10
	.uleb128 .Ltmp11-.Lfunc_begin0          #     jumps to .Ltmp11
	.byte	0                               #   On action: cleanup
	.uleb128 .Ltmp12-.Lfunc_begin0          # >> Call Site 6 <<
	.uleb128 .Ltmp13-.Ltmp12                #   Call between .Ltmp12 and .Ltmp13
	.uleb128 .Ltmp14-.Lfunc_begin0          #     jumps to .Ltmp14
	.byte	0                               #   On action: cleanup
	.uleb128 .Ltmp15-.Lfunc_begin0          # >> Call Site 7 <<
	.uleb128 .Ltmp16-.Ltmp15                #   Call between .Ltmp15 and .Ltmp16
	.uleb128 .Ltmp17-.Lfunc_begin0          #     jumps to .Ltmp17
	.byte	0                               #   On action: cleanup
	.uleb128 .Ltmp18-.Lfunc_begin0          # >> Call Site 8 <<
	.uleb128 .Ltmp19-.Ltmp18                #   Call between .Ltmp18 and .Ltmp19
	.uleb128 .Ltmp20-.Lfunc_begin0          #     jumps to .Ltmp20
	.byte	0                               #   On action: cleanup
	.uleb128 .Ltmp21-.Lfunc_begin0          # >> Call Site 9 <<
	.uleb128 .Ltmp22-.Ltmp21                #   Call between .Ltmp21 and .Ltmp22
	.uleb128 .Ltmp23-.Lfunc_begin0          #     jumps to .Ltmp23
	.byte	0                               #   On action: cleanup
	.uleb128 .Ltmp24-.Lfunc_begin0          # >> Call Site 10 <<
	.uleb128 .Ltmp25-.Ltmp24                #   Call between .Ltmp24 and .Ltmp25
	.uleb128 .Ltmp26-.Lfunc_begin0          #     jumps to .Ltmp26
	.byte	0                               #   On action: cleanup
	.uleb128 .Ltmp27-.Lfunc_begin0          # >> Call Site 11 <<
	.uleb128 .Ltmp36-.Ltmp27                #   Call between .Ltmp27 and .Ltmp36
	.uleb128 .Ltmp37-.Lfunc_begin0          #     jumps to .Ltmp37
	.byte	0                               #   On action: cleanup
	.uleb128 .Ltmp38-.Lfunc_begin0          # >> Call Site 12 <<
	.uleb128 .Ltmp39-.Ltmp38                #   Call between .Ltmp38 and .Ltmp39
	.uleb128 .Ltmp40-.Lfunc_begin0          #     jumps to .Ltmp40
	.byte	0                               #   On action: cleanup
	.uleb128 .Ltmp41-.Lfunc_begin0          # >> Call Site 13 <<
	.uleb128 .Ltmp46-.Ltmp41                #   Call between .Ltmp41 and .Ltmp46
	.uleb128 .Ltmp47-.Lfunc_begin0          #     jumps to .Ltmp47
	.byte	0                               #   On action: cleanup
	.uleb128 .Ltmp48-.Lfunc_begin0          # >> Call Site 14 <<
	.uleb128 .Ltmp49-.Ltmp48                #   Call between .Ltmp48 and .Ltmp49
	.uleb128 .Ltmp50-.Lfunc_begin0          #     jumps to .Ltmp50
	.byte	0                               #   On action: cleanup
	.uleb128 .Ltmp49-.Lfunc_begin0          # >> Call Site 15 <<
	.uleb128 .Lfunc_end0-.Ltmp49            #   Call between .Ltmp49 and .Lfunc_end0
	.byte	0                               #     has no landing pad
	.byte	0                               #   On action: cleanup
.Lcst_end0:
	.p2align	2
                                        # -- End function
	.section	.text._ZN13PrintObserverC2Ev,"axG",@progbits,_ZN13PrintObserverC2Ev,comdat
	.weak	_ZN13PrintObserverC2Ev          # -- Begin function _ZN13PrintObserverC2Ev
	.p2align	4, 0x90
	.type	_ZN13PrintObserverC2Ev,@function
_ZN13PrintObserverC2Ev:                 # @_ZN13PrintObserverC2Ev
	.cfi_startproc
# %bb.0:
	pushq	%rbp
	.cfi_def_cfa_offset 16
	.cfi_offset %rbp, -16
	movq	%rsp, %rbp
	.cfi_def_cfa_register %rbp
	subq	$16, %rsp
	movq	%rdi, -8(%rbp)
	movq	-8(%rbp), %rdi
	movq	%rdi, -16(%rbp)                 # 8-byte Spill
	callq	_ZN14SensorObserverC2Ev
	movq	-16(%rbp), %rax                 # 8-byte Reload
	movq	_ZTV13PrintObserver@GOTPCREL(%rip), %rcx
	addq	$16, %rcx
	movq	%rcx, (%rax)
	addq	$16, %rsp
	popq	%rbp
	.cfi_def_cfa %rsp, 8
	retq
.Lfunc_end1:
	.size	_ZN13PrintObserverC2Ev, .Lfunc_end1-_ZN13PrintObserverC2Ev
	.cfi_endproc
                                        # -- End function
	.section	.text._ZSt11make_uniqueI9ImuSensorJRA5_KcEENSt8__detail9_MakeUniqIT_E15__single_objectEDpOT0_,"axG",@progbits,_ZSt11make_uniqueI9ImuSensorJRA5_KcEENSt8__detail9_MakeUniqIT_E15__single_objectEDpOT0_,comdat
	.weak	_ZSt11make_uniqueI9ImuSensorJRA5_KcEENSt8__detail9_MakeUniqIT_E15__single_objectEDpOT0_ # -- Begin function _ZSt11make_uniqueI9ImuSensorJRA5_KcEENSt8__detail9_MakeUniqIT_E15__single_objectEDpOT0_
	.p2align	4, 0x90
	.type	_ZSt11make_uniqueI9ImuSensorJRA5_KcEENSt8__detail9_MakeUniqIT_E15__single_objectEDpOT0_,@function
_ZSt11make_uniqueI9ImuSensorJRA5_KcEENSt8__detail9_MakeUniqIT_E15__single_objectEDpOT0_: # @_ZSt11make_uniqueI9ImuSensorJRA5_KcEENSt8__detail9_MakeUniqIT_E15__single_objectEDpOT0_
.Lfunc_begin1:
	.cfi_startproc
	.cfi_personality 155, DW.ref.__gxx_personality_v0
	.cfi_lsda 27, .Lexception1
# %bb.0:
	pushq	%rbp
	.cfi_def_cfa_offset 16
	.cfi_offset %rbp, -16
	movq	%rsp, %rbp
	.cfi_def_cfa_register %rbp
	subq	$144, %rsp
	movq	%rdi, -136(%rbp)                # 8-byte Spill
	movq	%rdi, %rax
	movq	%rax, -128(%rbp)                # 8-byte Spill
	movq	%rdi, -40(%rbp)
	movq	%rsi, -48(%rbp)
	movl	$80, %edi
	callq	_Znwm@PLT
	movq	%rax, %rcx
	movq	%rcx, -120(%rbp)                # 8-byte Spill
	movb	$1, -101(%rbp)
	movq	%rax, -112(%rbp)                # 8-byte Spill
	movq	-48(%rbp), %rdi
	callq	_ZSt7forwardIRA5_KcEOT_RNSt16remove_referenceIS3_E4typeE
	movq	%rax, %rsi
	leaq	-88(%rbp), %rdx
	movq	%rdx, -32(%rbp)
	movq	-32(%rbp), %rax
	movq	%rax, -8(%rbp)
.Ltmp51:
	leaq	-80(%rbp), %rdi
	callq	_ZNSt7__cxx1112basic_stringIcSt11char_traitsIcESaIcEEC2IS3_EEPKcRKS3_
.Ltmp52:
	jmp	.LBB2_1
.LBB2_1:
.Ltmp54:
	movq	-112(%rbp), %rdi                # 8-byte Reload
	leaq	-80(%rbp), %rsi
	callq	_ZN9ImuSensorC1ERKNSt7__cxx1112basic_stringIcSt11char_traitsIcESaIcEEE@PLT
.Ltmp55:
	jmp	.LBB2_2
.LBB2_2:
	movq	-112(%rbp), %rsi                # 8-byte Reload
	movq	-136(%rbp), %rdi                # 8-byte Reload
	movb	$0, -101(%rbp)
	callq	_ZNSt10unique_ptrI9ImuSensorSt14default_deleteIS0_EEC2IS2_vEEPS0_
	leaq	-80(%rbp), %rdi
	callq	_ZNSt7__cxx1112basic_stringIcSt11char_traitsIcESaIcEED2Ev
	movq	-128(%rbp), %rax                # 8-byte Reload
	leaq	-88(%rbp), %rcx
	movq	%rcx, -24(%rbp)
	addq	$144, %rsp
	popq	%rbp
	.cfi_def_cfa %rsp, 8
	retq
.LBB2_3:
	.cfi_def_cfa %rbp, 16
.Ltmp53:
	movq	%rax, %rcx
	movl	%edx, %eax
	movq	%rcx, -96(%rbp)
	movl	%eax, -100(%rbp)
	jmp	.LBB2_5
.LBB2_4:
.Ltmp56:
	movq	%rax, %rcx
	movl	%edx, %eax
	movq	%rcx, -96(%rbp)
	movl	%eax, -100(%rbp)
	leaq	-80(%rbp), %rdi
	callq	_ZNSt7__cxx1112basic_stringIcSt11char_traitsIcESaIcEED2Ev
.LBB2_5:
	leaq	-88(%rbp), %rax
	movq	%rax, -16(%rbp)
	testb	$1, -101(%rbp)
	jne	.LBB2_6
	jmp	.LBB2_7
.LBB2_6:
	movq	-120(%rbp), %rdi                # 8-byte Reload
	callq	_ZdlPv@PLT
.LBB2_7:
	jmp	.LBB2_8
.LBB2_8:
	movq	-96(%rbp), %rdi
	callq	_Unwind_Resume@PLT
.Lfunc_end2:
	.size	_ZSt11make_uniqueI9ImuSensorJRA5_KcEENSt8__detail9_MakeUniqIT_E15__single_objectEDpOT0_, .Lfunc_end2-_ZSt11make_uniqueI9ImuSensorJRA5_KcEENSt8__detail9_MakeUniqIT_E15__single_objectEDpOT0_
	.cfi_endproc
	.section	.gcc_except_table._ZSt11make_uniqueI9ImuSensorJRA5_KcEENSt8__detail9_MakeUniqIT_E15__single_objectEDpOT0_,"aG",@progbits,_ZSt11make_uniqueI9ImuSensorJRA5_KcEENSt8__detail9_MakeUniqIT_E15__single_objectEDpOT0_,comdat
	.p2align	2
GCC_except_table2:
.Lexception1:
	.byte	255                             # @LPStart Encoding = omit
	.byte	255                             # @TType Encoding = omit
	.byte	1                               # Call site Encoding = uleb128
	.uleb128 .Lcst_end1-.Lcst_begin1
.Lcst_begin1:
	.uleb128 .Lfunc_begin1-.Lfunc_begin1    # >> Call Site 1 <<
	.uleb128 .Ltmp51-.Lfunc_begin1          #   Call between .Lfunc_begin1 and .Ltmp51
	.byte	0                               #     has no landing pad
	.byte	0                               #   On action: cleanup
	.uleb128 .Ltmp51-.Lfunc_begin1          # >> Call Site 2 <<
	.uleb128 .Ltmp52-.Ltmp51                #   Call between .Ltmp51 and .Ltmp52
	.uleb128 .Ltmp53-.Lfunc_begin1          #     jumps to .Ltmp53
	.byte	0                               #   On action: cleanup
	.uleb128 .Ltmp54-.Lfunc_begin1          # >> Call Site 3 <<
	.uleb128 .Ltmp55-.Ltmp54                #   Call between .Ltmp54 and .Ltmp55
	.uleb128 .Ltmp56-.Lfunc_begin1          #     jumps to .Ltmp56
	.byte	0                               #   On action: cleanup
	.uleb128 .Ltmp55-.Lfunc_begin1          # >> Call Site 4 <<
	.uleb128 .Lfunc_end2-.Ltmp55            #   Call between .Ltmp55 and .Lfunc_end2
	.byte	0                               #     has no landing pad
	.byte	0                               #   On action: cleanup
.Lcst_end1:
	.p2align	2
                                        # -- End function
	.section	.text._ZSt11make_uniqueI11FilteredImuJRA11_KcEENSt8__detail9_MakeUniqIT_E15__single_objectEDpOT0_,"axG",@progbits,_ZSt11make_uniqueI11FilteredImuJRA11_KcEENSt8__detail9_MakeUniqIT_E15__single_objectEDpOT0_,comdat
	.weak	_ZSt11make_uniqueI11FilteredImuJRA11_KcEENSt8__detail9_MakeUniqIT_E15__single_objectEDpOT0_ # -- Begin function _ZSt11make_uniqueI11FilteredImuJRA11_KcEENSt8__detail9_MakeUniqIT_E15__single_objectEDpOT0_
	.p2align	4, 0x90
	.type	_ZSt11make_uniqueI11FilteredImuJRA11_KcEENSt8__detail9_MakeUniqIT_E15__single_objectEDpOT0_,@function
_ZSt11make_uniqueI11FilteredImuJRA11_KcEENSt8__detail9_MakeUniqIT_E15__single_objectEDpOT0_: # @_ZSt11make_uniqueI11FilteredImuJRA11_KcEENSt8__detail9_MakeUniqIT_E15__single_objectEDpOT0_
.Lfunc_begin2:
	.cfi_startproc
	.cfi_personality 155, DW.ref.__gxx_personality_v0
	.cfi_lsda 27, .Lexception2
# %bb.0:
	pushq	%rbp
	.cfi_def_cfa_offset 16
	.cfi_offset %rbp, -16
	movq	%rsp, %rbp
	.cfi_def_cfa_register %rbp
	subq	$144, %rsp
	movq	%rdi, -136(%rbp)                # 8-byte Spill
	movq	%rdi, %rax
	movq	%rax, -128(%rbp)                # 8-byte Spill
	movq	%rdi, -40(%rbp)
	movq	%rsi, -48(%rbp)
	movl	$136, %edi
	callq	_Znwm@PLT
	movq	%rax, %rcx
	movq	%rcx, -120(%rbp)                # 8-byte Spill
	movb	$1, -101(%rbp)
	movq	%rax, -112(%rbp)                # 8-byte Spill
	movq	-48(%rbp), %rdi
	callq	_ZSt7forwardIRA11_KcEOT_RNSt16remove_referenceIS3_E4typeE
	movq	%rax, %rsi
	leaq	-88(%rbp), %rdx
	movq	%rdx, -32(%rbp)
	movq	-32(%rbp), %rax
	movq	%rax, -8(%rbp)
.Ltmp57:
	leaq	-80(%rbp), %rdi
	callq	_ZNSt7__cxx1112basic_stringIcSt11char_traitsIcESaIcEEC2IS3_EEPKcRKS3_
.Ltmp58:
	jmp	.LBB3_1
.LBB3_1:
.Ltmp60:
	movq	-112(%rbp), %rdi                # 8-byte Reload
	leaq	-80(%rbp), %rsi
	callq	_ZN11FilteredImuC1ERKNSt7__cxx1112basic_stringIcSt11char_traitsIcESaIcEEE@PLT
.Ltmp61:
	jmp	.LBB3_2
.LBB3_2:
	movq	-112(%rbp), %rsi                # 8-byte Reload
	movq	-136(%rbp), %rdi                # 8-byte Reload
	movb	$0, -101(%rbp)
	callq	_ZNSt10unique_ptrI11FilteredImuSt14default_deleteIS0_EEC2IS2_vEEPS0_
	leaq	-80(%rbp), %rdi
	callq	_ZNSt7__cxx1112basic_stringIcSt11char_traitsIcESaIcEED2Ev
	movq	-128(%rbp), %rax                # 8-byte Reload
	leaq	-88(%rbp), %rcx
	movq	%rcx, -24(%rbp)
	addq	$144, %rsp
	popq	%rbp
	.cfi_def_cfa %rsp, 8
	retq
.LBB3_3:
	.cfi_def_cfa %rbp, 16
.Ltmp59:
	movq	%rax, %rcx
	movl	%edx, %eax
	movq	%rcx, -96(%rbp)
	movl	%eax, -100(%rbp)
	jmp	.LBB3_5
.LBB3_4:
.Ltmp62:
	movq	%rax, %rcx
	movl	%edx, %eax
	movq	%rcx, -96(%rbp)
	movl	%eax, -100(%rbp)
	leaq	-80(%rbp), %rdi
	callq	_ZNSt7__cxx1112basic_stringIcSt11char_traitsIcESaIcEED2Ev
.LBB3_5:
	leaq	-88(%rbp), %rax
	movq	%rax, -16(%rbp)
	testb	$1, -101(%rbp)
	jne	.LBB3_6
	jmp	.LBB3_7
.LBB3_6:
	movq	-120(%rbp), %rdi                # 8-byte Reload
	callq	_ZdlPv@PLT
.LBB3_7:
	jmp	.LBB3_8
.LBB3_8:
	movq	-96(%rbp), %rdi
	callq	_Unwind_Resume@PLT
.Lfunc_end3:
	.size	_ZSt11make_uniqueI11FilteredImuJRA11_KcEENSt8__detail9_MakeUniqIT_E15__single_objectEDpOT0_, .Lfunc_end3-_ZSt11make_uniqueI11FilteredImuJRA11_KcEENSt8__detail9_MakeUniqIT_E15__single_objectEDpOT0_
	.cfi_endproc
	.section	.gcc_except_table._ZSt11make_uniqueI11FilteredImuJRA11_KcEENSt8__detail9_MakeUniqIT_E15__single_objectEDpOT0_,"aG",@progbits,_ZSt11make_uniqueI11FilteredImuJRA11_KcEENSt8__detail9_MakeUniqIT_E15__single_objectEDpOT0_,comdat
	.p2align	2
GCC_except_table3:
.Lexception2:
	.byte	255                             # @LPStart Encoding = omit
	.byte	255                             # @TType Encoding = omit
	.byte	1                               # Call site Encoding = uleb128
	.uleb128 .Lcst_end2-.Lcst_begin2
.Lcst_begin2:
	.uleb128 .Lfunc_begin2-.Lfunc_begin2    # >> Call Site 1 <<
	.uleb128 .Ltmp57-.Lfunc_begin2          #   Call between .Lfunc_begin2 and .Ltmp57
	.byte	0                               #     has no landing pad
	.byte	0                               #   On action: cleanup
	.uleb128 .Ltmp57-.Lfunc_begin2          # >> Call Site 2 <<
	.uleb128 .Ltmp58-.Ltmp57                #   Call between .Ltmp57 and .Ltmp58
	.uleb128 .Ltmp59-.Lfunc_begin2          #     jumps to .Ltmp59
	.byte	0                               #   On action: cleanup
	.uleb128 .Ltmp60-.Lfunc_begin2          # >> Call Site 3 <<
	.uleb128 .Ltmp61-.Ltmp60                #   Call between .Ltmp60 and .Ltmp61
	.uleb128 .Ltmp62-.Lfunc_begin2          #     jumps to .Ltmp62
	.byte	0                               #   On action: cleanup
	.uleb128 .Ltmp61-.Lfunc_begin2          # >> Call Site 4 <<
	.uleb128 .Lfunc_end3-.Ltmp61            #   Call between .Ltmp61 and .Lfunc_end3
	.byte	0                               #     has no landing pad
	.byte	0                               #   On action: cleanup
.Lcst_end2:
	.p2align	2
                                        # -- End function
	.section	.text._ZSt11make_uniqueI12CameraSensorJRA4_KcRA8_S1_EENSt8__detail9_MakeUniqIT_E15__single_objectEDpOT0_,"axG",@progbits,_ZSt11make_uniqueI12CameraSensorJRA4_KcRA8_S1_EENSt8__detail9_MakeUniqIT_E15__single_objectEDpOT0_,comdat
	.weak	_ZSt11make_uniqueI12CameraSensorJRA4_KcRA8_S1_EENSt8__detail9_MakeUniqIT_E15__single_objectEDpOT0_ # -- Begin function _ZSt11make_uniqueI12CameraSensorJRA4_KcRA8_S1_EENSt8__detail9_MakeUniqIT_E15__single_objectEDpOT0_
	.p2align	4, 0x90
	.type	_ZSt11make_uniqueI12CameraSensorJRA4_KcRA8_S1_EENSt8__detail9_MakeUniqIT_E15__single_objectEDpOT0_,@function
_ZSt11make_uniqueI12CameraSensorJRA4_KcRA8_S1_EENSt8__detail9_MakeUniqIT_E15__single_objectEDpOT0_: # @_ZSt11make_uniqueI12CameraSensorJRA4_KcRA8_S1_EENSt8__detail9_MakeUniqIT_E15__single_objectEDpOT0_
.Lfunc_begin3:
	.cfi_startproc
	.cfi_personality 155, DW.ref.__gxx_personality_v0
	.cfi_lsda 27, .Lexception3
# %bb.0:
	pushq	%rbp
	.cfi_def_cfa_offset 16
	.cfi_offset %rbp, -16
	movq	%rsp, %rbp
	.cfi_def_cfa_register %rbp
	subq	$224, %rsp
	movq	%rdi, -224(%rbp)                # 8-byte Spill
	movq	%rdi, %rax
	movq	%rax, -216(%rbp)                # 8-byte Spill
	movq	%rdi, -72(%rbp)
	movq	%rsi, -80(%rbp)
	movq	%rdx, -88(%rbp)
	movl	$112, %edi
	callq	_Znwm@PLT
	movq	%rax, %rcx
	movq	%rcx, -208(%rbp)                # 8-byte Spill
	movb	$1, -185(%rbp)
	movq	%rax, -200(%rbp)                # 8-byte Spill
	movq	-80(%rbp), %rdi
	callq	_ZSt7forwardIRA4_KcEOT_RNSt16remove_referenceIS3_E4typeE
	movq	%rax, %rsi
	leaq	-128(%rbp), %rdx
	movq	%rdx, -64(%rbp)
	movq	-64(%rbp), %rax
	movq	%rax, -8(%rbp)
.Ltmp63:
	leaq	-120(%rbp), %rdi
	callq	_ZNSt7__cxx1112basic_stringIcSt11char_traitsIcESaIcEEC2IS3_EEPKcRKS3_
.Ltmp64:
	jmp	.LBB4_1
.LBB4_1:
	movq	-88(%rbp), %rdi
	callq	_ZSt7forwardIRA8_KcEOT_RNSt16remove_referenceIS3_E4typeE
	movq	%rax, %rsi
	leaq	-184(%rbp), %rdx
	movq	%rdx, -56(%rbp)
	movq	-56(%rbp), %rax
	movq	%rax, -16(%rbp)
.Ltmp66:
	leaq	-176(%rbp), %rdi
	callq	_ZNSt7__cxx1112basic_stringIcSt11char_traitsIcESaIcEEC2IS3_EEPKcRKS3_
.Ltmp67:
	jmp	.LBB4_2
.LBB4_2:
.Ltmp69:
	movq	-200(%rbp), %rdi                # 8-byte Reload
	leaq	-120(%rbp), %rsi
	leaq	-176(%rbp), %rdx
	callq	_ZN12CameraSensorC1ERKNSt7__cxx1112basic_stringIcSt11char_traitsIcESaIcEEES5_@PLT
.Ltmp70:
	jmp	.LBB4_3
.LBB4_3:
	movq	-200(%rbp), %rsi                # 8-byte Reload
	movq	-224(%rbp), %rdi                # 8-byte Reload
	movb	$0, -185(%rbp)
	callq	_ZNSt10unique_ptrI12CameraSensorSt14default_deleteIS0_EEC2IS2_vEEPS0_
	leaq	-176(%rbp), %rdi
	callq	_ZNSt7__cxx1112basic_stringIcSt11char_traitsIcESaIcEED2Ev
	leaq	-184(%rbp), %rax
	movq	%rax, -48(%rbp)
	leaq	-120(%rbp), %rdi
	callq	_ZNSt7__cxx1112basic_stringIcSt11char_traitsIcESaIcEED2Ev
	movq	-216(%rbp), %rax                # 8-byte Reload
	leaq	-128(%rbp), %rcx
	movq	%rcx, -32(%rbp)
	addq	$224, %rsp
	popq	%rbp
	.cfi_def_cfa %rsp, 8
	retq
.LBB4_4:
	.cfi_def_cfa %rbp, 16
.Ltmp65:
	movq	%rax, %rcx
	movl	%edx, %eax
	movq	%rcx, -136(%rbp)
	movl	%eax, -140(%rbp)
	jmp	.LBB4_8
.LBB4_5:
.Ltmp68:
	movq	%rax, %rcx
	movl	%edx, %eax
	movq	%rcx, -136(%rbp)
	movl	%eax, -140(%rbp)
	jmp	.LBB4_7
.LBB4_6:
.Ltmp71:
	movq	%rax, %rcx
	movl	%edx, %eax
	movq	%rcx, -136(%rbp)
	movl	%eax, -140(%rbp)
	leaq	-176(%rbp), %rdi
	callq	_ZNSt7__cxx1112basic_stringIcSt11char_traitsIcESaIcEED2Ev
.LBB4_7:
	leaq	-184(%rbp), %rax
	movq	%rax, -40(%rbp)
	leaq	-120(%rbp), %rdi
	callq	_ZNSt7__cxx1112basic_stringIcSt11char_traitsIcESaIcEED2Ev
.LBB4_8:
	leaq	-128(%rbp), %rax
	movq	%rax, -24(%rbp)
	testb	$1, -185(%rbp)
	jne	.LBB4_9
	jmp	.LBB4_10
.LBB4_9:
	movq	-208(%rbp), %rdi                # 8-byte Reload
	callq	_ZdlPv@PLT
.LBB4_10:
	jmp	.LBB4_11
.LBB4_11:
	movq	-136(%rbp), %rdi
	callq	_Unwind_Resume@PLT
.Lfunc_end4:
	.size	_ZSt11make_uniqueI12CameraSensorJRA4_KcRA8_S1_EENSt8__detail9_MakeUniqIT_E15__single_objectEDpOT0_, .Lfunc_end4-_ZSt11make_uniqueI12CameraSensorJRA4_KcRA8_S1_EENSt8__detail9_MakeUniqIT_E15__single_objectEDpOT0_
	.cfi_endproc
	.section	.gcc_except_table._ZSt11make_uniqueI12CameraSensorJRA4_KcRA8_S1_EENSt8__detail9_MakeUniqIT_E15__single_objectEDpOT0_,"aG",@progbits,_ZSt11make_uniqueI12CameraSensorJRA4_KcRA8_S1_EENSt8__detail9_MakeUniqIT_E15__single_objectEDpOT0_,comdat
	.p2align	2
GCC_except_table4:
.Lexception3:
	.byte	255                             # @LPStart Encoding = omit
	.byte	255                             # @TType Encoding = omit
	.byte	1                               # Call site Encoding = uleb128
	.uleb128 .Lcst_end3-.Lcst_begin3
.Lcst_begin3:
	.uleb128 .Lfunc_begin3-.Lfunc_begin3    # >> Call Site 1 <<
	.uleb128 .Ltmp63-.Lfunc_begin3          #   Call between .Lfunc_begin3 and .Ltmp63
	.byte	0                               #     has no landing pad
	.byte	0                               #   On action: cleanup
	.uleb128 .Ltmp63-.Lfunc_begin3          # >> Call Site 2 <<
	.uleb128 .Ltmp64-.Ltmp63                #   Call between .Ltmp63 and .Ltmp64
	.uleb128 .Ltmp65-.Lfunc_begin3          #     jumps to .Ltmp65
	.byte	0                               #   On action: cleanup
	.uleb128 .Ltmp66-.Lfunc_begin3          # >> Call Site 3 <<
	.uleb128 .Ltmp67-.Ltmp66                #   Call between .Ltmp66 and .Ltmp67
	.uleb128 .Ltmp68-.Lfunc_begin3          #     jumps to .Ltmp68
	.byte	0                               #   On action: cleanup
	.uleb128 .Ltmp69-.Lfunc_begin3          # >> Call Site 4 <<
	.uleb128 .Ltmp70-.Ltmp69                #   Call between .Ltmp69 and .Ltmp70
	.uleb128 .Ltmp71-.Lfunc_begin3          #     jumps to .Ltmp71
	.byte	0                               #   On action: cleanup
	.uleb128 .Ltmp70-.Lfunc_begin3          # >> Call Site 5 <<
	.uleb128 .Lfunc_end4-.Ltmp70            #   Call between .Ltmp70 and .Lfunc_end4
	.byte	0                               #     has no landing pad
	.byte	0                               #   On action: cleanup
.Lcst_end3:
	.p2align	2
                                        # -- End function
	.section	.text._ZSt11make_uniqueI11LidarSensorJRA9_KciEENSt8__detail9_MakeUniqIT_E15__single_objectEDpOT0_,"axG",@progbits,_ZSt11make_uniqueI11LidarSensorJRA9_KciEENSt8__detail9_MakeUniqIT_E15__single_objectEDpOT0_,comdat
	.weak	_ZSt11make_uniqueI11LidarSensorJRA9_KciEENSt8__detail9_MakeUniqIT_E15__single_objectEDpOT0_ # -- Begin function _ZSt11make_uniqueI11LidarSensorJRA9_KciEENSt8__detail9_MakeUniqIT_E15__single_objectEDpOT0_
	.p2align	4, 0x90
	.type	_ZSt11make_uniqueI11LidarSensorJRA9_KciEENSt8__detail9_MakeUniqIT_E15__single_objectEDpOT0_,@function
_ZSt11make_uniqueI11LidarSensorJRA9_KciEENSt8__detail9_MakeUniqIT_E15__single_objectEDpOT0_: # @_ZSt11make_uniqueI11LidarSensorJRA9_KciEENSt8__detail9_MakeUniqIT_E15__single_objectEDpOT0_
.Lfunc_begin4:
	.cfi_startproc
	.cfi_personality 155, DW.ref.__gxx_personality_v0
	.cfi_lsda 27, .Lexception4
# %bb.0:
	pushq	%rbp
	.cfi_def_cfa_offset 16
	.cfi_offset %rbp, -16
	movq	%rsp, %rbp
	.cfi_def_cfa_register %rbp
	subq	$144, %rsp
	movq	%rdi, -144(%rbp)                # 8-byte Spill
	movq	%rdi, %rax
	movq	%rax, -136(%rbp)                # 8-byte Spill
	movq	%rdi, -40(%rbp)
	movq	%rsi, -48(%rbp)
	movq	%rdx, -56(%rbp)
	movl	$10112, %edi                    # imm = 0x2780
	callq	_Znwm@PLT
	movq	%rax, %rcx
	movq	%rcx, -128(%rbp)                # 8-byte Spill
	movb	$1, -109(%rbp)
	movq	%rax, -120(%rbp)                # 8-byte Spill
	movq	-48(%rbp), %rdi
	callq	_ZSt7forwardIRA9_KcEOT_RNSt16remove_referenceIS3_E4typeE
	movq	%rax, %rsi
	leaq	-96(%rbp), %rdx
	movq	%rdx, -32(%rbp)
	movq	-32(%rbp), %rax
	movq	%rax, -8(%rbp)
.Ltmp72:
	leaq	-88(%rbp), %rdi
	callq	_ZNSt7__cxx1112basic_stringIcSt11char_traitsIcESaIcEEC2IS3_EEPKcRKS3_
.Ltmp73:
	jmp	.LBB5_1
.LBB5_1:
	movq	-56(%rbp), %rdi
	callq	_ZSt7forwardIiEOT_RNSt16remove_referenceIS0_E4typeE
	movq	-120(%rbp), %rdi                # 8-byte Reload
	movl	(%rax), %edx
.Ltmp75:
	leaq	-88(%rbp), %rsi
	callq	_ZN11LidarSensorC1ERKNSt7__cxx1112basic_stringIcSt11char_traitsIcESaIcEEEi@PLT
.Ltmp76:
	jmp	.LBB5_2
.LBB5_2:
	movq	-120(%rbp), %rsi                # 8-byte Reload
	movq	-144(%rbp), %rdi                # 8-byte Reload
	movb	$0, -109(%rbp)
	callq	_ZNSt10unique_ptrI11LidarSensorSt14default_deleteIS0_EEC2IS2_vEEPS0_
	leaq	-88(%rbp), %rdi
	callq	_ZNSt7__cxx1112basic_stringIcSt11char_traitsIcESaIcEED2Ev
	movq	-136(%rbp), %rax                # 8-byte Reload
	leaq	-96(%rbp), %rcx
	movq	%rcx, -24(%rbp)
	addq	$144, %rsp
	popq	%rbp
	.cfi_def_cfa %rsp, 8
	retq
.LBB5_3:
	.cfi_def_cfa %rbp, 16
.Ltmp74:
	movq	%rax, %rcx
	movl	%edx, %eax
	movq	%rcx, -104(%rbp)
	movl	%eax, -108(%rbp)
	jmp	.LBB5_5
.LBB5_4:
.Ltmp77:
	movq	%rax, %rcx
	movl	%edx, %eax
	movq	%rcx, -104(%rbp)
	movl	%eax, -108(%rbp)
	leaq	-88(%rbp), %rdi
	callq	_ZNSt7__cxx1112basic_stringIcSt11char_traitsIcESaIcEED2Ev
.LBB5_5:
	leaq	-96(%rbp), %rax
	movq	%rax, -16(%rbp)
	testb	$1, -109(%rbp)
	jne	.LBB5_6
	jmp	.LBB5_7
.LBB5_6:
	movq	-128(%rbp), %rdi                # 8-byte Reload
	callq	_ZdlPv@PLT
.LBB5_7:
	jmp	.LBB5_8
.LBB5_8:
	movq	-104(%rbp), %rdi
	callq	_Unwind_Resume@PLT
.Lfunc_end5:
	.size	_ZSt11make_uniqueI11LidarSensorJRA9_KciEENSt8__detail9_MakeUniqIT_E15__single_objectEDpOT0_, .Lfunc_end5-_ZSt11make_uniqueI11LidarSensorJRA9_KciEENSt8__detail9_MakeUniqIT_E15__single_objectEDpOT0_
	.cfi_endproc
	.section	.gcc_except_table._ZSt11make_uniqueI11LidarSensorJRA9_KciEENSt8__detail9_MakeUniqIT_E15__single_objectEDpOT0_,"aG",@progbits,_ZSt11make_uniqueI11LidarSensorJRA9_KciEENSt8__detail9_MakeUniqIT_E15__single_objectEDpOT0_,comdat
	.p2align	2
GCC_except_table5:
.Lexception4:
	.byte	255                             # @LPStart Encoding = omit
	.byte	255                             # @TType Encoding = omit
	.byte	1                               # Call site Encoding = uleb128
	.uleb128 .Lcst_end4-.Lcst_begin4
.Lcst_begin4:
	.uleb128 .Lfunc_begin4-.Lfunc_begin4    # >> Call Site 1 <<
	.uleb128 .Ltmp72-.Lfunc_begin4          #   Call between .Lfunc_begin4 and .Ltmp72
	.byte	0                               #     has no landing pad
	.byte	0                               #   On action: cleanup
	.uleb128 .Ltmp72-.Lfunc_begin4          # >> Call Site 2 <<
	.uleb128 .Ltmp73-.Ltmp72                #   Call between .Ltmp72 and .Ltmp73
	.uleb128 .Ltmp74-.Lfunc_begin4          #     jumps to .Ltmp74
	.byte	0                               #   On action: cleanup
	.uleb128 .Ltmp75-.Lfunc_begin4          # >> Call Site 3 <<
	.uleb128 .Ltmp76-.Ltmp75                #   Call between .Ltmp75 and .Ltmp76
	.uleb128 .Ltmp77-.Lfunc_begin4          #     jumps to .Ltmp77
	.byte	0                               #   On action: cleanup
	.uleb128 .Ltmp76-.Lfunc_begin4          # >> Call Site 4 <<
	.uleb128 .Lfunc_end5-.Ltmp76            #   Call between .Ltmp76 and .Lfunc_end5
	.byte	0                               #     has no landing pad
	.byte	0                               #   On action: cleanup
.Lcst_end4:
	.p2align	2
                                        # -- End function
	.section	.text._ZSt11make_uniqueI11LidarSensorJRA7_KciEENSt8__detail9_MakeUniqIT_E15__single_objectEDpOT0_,"axG",@progbits,_ZSt11make_uniqueI11LidarSensorJRA7_KciEENSt8__detail9_MakeUniqIT_E15__single_objectEDpOT0_,comdat
	.weak	_ZSt11make_uniqueI11LidarSensorJRA7_KciEENSt8__detail9_MakeUniqIT_E15__single_objectEDpOT0_ # -- Begin function _ZSt11make_uniqueI11LidarSensorJRA7_KciEENSt8__detail9_MakeUniqIT_E15__single_objectEDpOT0_
	.p2align	4, 0x90
	.type	_ZSt11make_uniqueI11LidarSensorJRA7_KciEENSt8__detail9_MakeUniqIT_E15__single_objectEDpOT0_,@function
_ZSt11make_uniqueI11LidarSensorJRA7_KciEENSt8__detail9_MakeUniqIT_E15__single_objectEDpOT0_: # @_ZSt11make_uniqueI11LidarSensorJRA7_KciEENSt8__detail9_MakeUniqIT_E15__single_objectEDpOT0_
.Lfunc_begin5:
	.cfi_startproc
	.cfi_personality 155, DW.ref.__gxx_personality_v0
	.cfi_lsda 27, .Lexception5
# %bb.0:
	pushq	%rbp
	.cfi_def_cfa_offset 16
	.cfi_offset %rbp, -16
	movq	%rsp, %rbp
	.cfi_def_cfa_register %rbp
	subq	$144, %rsp
	movq	%rdi, -144(%rbp)                # 8-byte Spill
	movq	%rdi, %rax
	movq	%rax, -136(%rbp)                # 8-byte Spill
	movq	%rdi, -40(%rbp)
	movq	%rsi, -48(%rbp)
	movq	%rdx, -56(%rbp)
	movl	$10112, %edi                    # imm = 0x2780
	callq	_Znwm@PLT
	movq	%rax, %rcx
	movq	%rcx, -128(%rbp)                # 8-byte Spill
	movb	$1, -109(%rbp)
	movq	%rax, -120(%rbp)                # 8-byte Spill
	movq	-48(%rbp), %rdi
	callq	_ZSt7forwardIRA7_KcEOT_RNSt16remove_referenceIS3_E4typeE
	movq	%rax, %rsi
	leaq	-96(%rbp), %rdx
	movq	%rdx, -32(%rbp)
	movq	-32(%rbp), %rax
	movq	%rax, -8(%rbp)
.Ltmp78:
	leaq	-88(%rbp), %rdi
	callq	_ZNSt7__cxx1112basic_stringIcSt11char_traitsIcESaIcEEC2IS3_EEPKcRKS3_
.Ltmp79:
	jmp	.LBB6_1
.LBB6_1:
	movq	-56(%rbp), %rdi
	callq	_ZSt7forwardIiEOT_RNSt16remove_referenceIS0_E4typeE
	movq	-120(%rbp), %rdi                # 8-byte Reload
	movl	(%rax), %edx
.Ltmp81:
	leaq	-88(%rbp), %rsi
	callq	_ZN11LidarSensorC1ERKNSt7__cxx1112basic_stringIcSt11char_traitsIcESaIcEEEi@PLT
.Ltmp82:
	jmp	.LBB6_2
.LBB6_2:
	movq	-120(%rbp), %rsi                # 8-byte Reload
	movq	-144(%rbp), %rdi                # 8-byte Reload
	movb	$0, -109(%rbp)
	callq	_ZNSt10unique_ptrI11LidarSensorSt14default_deleteIS0_EEC2IS2_vEEPS0_
	leaq	-88(%rbp), %rdi
	callq	_ZNSt7__cxx1112basic_stringIcSt11char_traitsIcESaIcEED2Ev
	movq	-136(%rbp), %rax                # 8-byte Reload
	leaq	-96(%rbp), %rcx
	movq	%rcx, -24(%rbp)
	addq	$144, %rsp
	popq	%rbp
	.cfi_def_cfa %rsp, 8
	retq
.LBB6_3:
	.cfi_def_cfa %rbp, 16
.Ltmp80:
	movq	%rax, %rcx
	movl	%edx, %eax
	movq	%rcx, -104(%rbp)
	movl	%eax, -108(%rbp)
	jmp	.LBB6_5
.LBB6_4:
.Ltmp83:
	movq	%rax, %rcx
	movl	%edx, %eax
	movq	%rcx, -104(%rbp)
	movl	%eax, -108(%rbp)
	leaq	-88(%rbp), %rdi
	callq	_ZNSt7__cxx1112basic_stringIcSt11char_traitsIcESaIcEED2Ev
.LBB6_5:
	leaq	-96(%rbp), %rax
	movq	%rax, -16(%rbp)
	testb	$1, -109(%rbp)
	jne	.LBB6_6
	jmp	.LBB6_7
.LBB6_6:
	movq	-128(%rbp), %rdi                # 8-byte Reload
	callq	_ZdlPv@PLT
.LBB6_7:
	jmp	.LBB6_8
.LBB6_8:
	movq	-104(%rbp), %rdi
	callq	_Unwind_Resume@PLT
.Lfunc_end6:
	.size	_ZSt11make_uniqueI11LidarSensorJRA7_KciEENSt8__detail9_MakeUniqIT_E15__single_objectEDpOT0_, .Lfunc_end6-_ZSt11make_uniqueI11LidarSensorJRA7_KciEENSt8__detail9_MakeUniqIT_E15__single_objectEDpOT0_
	.cfi_endproc
	.section	.gcc_except_table._ZSt11make_uniqueI11LidarSensorJRA7_KciEENSt8__detail9_MakeUniqIT_E15__single_objectEDpOT0_,"aG",@progbits,_ZSt11make_uniqueI11LidarSensorJRA7_KciEENSt8__detail9_MakeUniqIT_E15__single_objectEDpOT0_,comdat
	.p2align	2
GCC_except_table6:
.Lexception5:
	.byte	255                             # @LPStart Encoding = omit
	.byte	255                             # @TType Encoding = omit
	.byte	1                               # Call site Encoding = uleb128
	.uleb128 .Lcst_end5-.Lcst_begin5
.Lcst_begin5:
	.uleb128 .Lfunc_begin5-.Lfunc_begin5    # >> Call Site 1 <<
	.uleb128 .Ltmp78-.Lfunc_begin5          #   Call between .Lfunc_begin5 and .Ltmp78
	.byte	0                               #     has no landing pad
	.byte	0                               #   On action: cleanup
	.uleb128 .Ltmp78-.Lfunc_begin5          # >> Call Site 2 <<
	.uleb128 .Ltmp79-.Ltmp78                #   Call between .Ltmp78 and .Ltmp79
	.uleb128 .Ltmp80-.Lfunc_begin5          #     jumps to .Ltmp80
	.byte	0                               #   On action: cleanup
	.uleb128 .Ltmp81-.Lfunc_begin5          # >> Call Site 3 <<
	.uleb128 .Ltmp82-.Ltmp81                #   Call between .Ltmp81 and .Ltmp82
	.uleb128 .Ltmp83-.Lfunc_begin5          #     jumps to .Ltmp83
	.byte	0                               #   On action: cleanup
	.uleb128 .Ltmp82-.Lfunc_begin5          # >> Call Site 4 <<
	.uleb128 .Lfunc_end6-.Ltmp82            #   Call between .Ltmp82 and .Lfunc_end6
	.byte	0                               #     has no landing pad
	.byte	0                               #   On action: cleanup
.Lcst_end5:
	.p2align	2
                                        # -- End function
	.section	.text._ZN14SensorPipelineC2Ev,"axG",@progbits,_ZN14SensorPipelineC2Ev,comdat
	.weak	_ZN14SensorPipelineC2Ev         # -- Begin function _ZN14SensorPipelineC2Ev
	.p2align	4, 0x90
	.type	_ZN14SensorPipelineC2Ev,@function
_ZN14SensorPipelineC2Ev:                # @_ZN14SensorPipelineC2Ev
	.cfi_startproc
# %bb.0:
	pushq	%rbp
	.cfi_def_cfa_offset 16
	.cfi_offset %rbp, -16
	movq	%rsp, %rbp
	.cfi_def_cfa_register %rbp
	subq	$16, %rsp
	movq	%rdi, -8(%rbp)
	movq	-8(%rbp), %rdi
	callq	_ZNSt6vectorISt10unique_ptrI10SensorBaseSt14default_deleteIS1_EESaIS4_EEC2Ev
	addq	$16, %rsp
	popq	%rbp
	.cfi_def_cfa %rsp, 8
	retq
.Lfunc_end7:
	.size	_ZN14SensorPipelineC2Ev, .Lfunc_end7-_ZN14SensorPipelineC2Ev
	.cfi_endproc
                                        # -- End function
	.section	.text._ZN14SensorPipeline3addESt10unique_ptrI10SensorBaseSt14default_deleteIS1_EE,"axG",@progbits,_ZN14SensorPipeline3addESt10unique_ptrI10SensorBaseSt14default_deleteIS1_EE,comdat
	.weak	_ZN14SensorPipeline3addESt10unique_ptrI10SensorBaseSt14default_deleteIS1_EE # -- Begin function _ZN14SensorPipeline3addESt10unique_ptrI10SensorBaseSt14default_deleteIS1_EE
	.p2align	4, 0x90
	.type	_ZN14SensorPipeline3addESt10unique_ptrI10SensorBaseSt14default_deleteIS1_EE,@function
_ZN14SensorPipeline3addESt10unique_ptrI10SensorBaseSt14default_deleteIS1_EE: # @_ZN14SensorPipeline3addESt10unique_ptrI10SensorBaseSt14default_deleteIS1_EE
	.cfi_startproc
# %bb.0:
	pushq	%rbp
	.cfi_def_cfa_offset 16
	.cfi_offset %rbp, -16
	movq	%rsp, %rbp
	.cfi_def_cfa_register %rbp
	subq	$32, %rsp
	movq	%rsi, -24(%rbp)                 # 8-byte Spill
	movq	%rdi, %rax
	movq	-24(%rbp), %rdi                 # 8-byte Reload
	movq	%rax, -8(%rbp)
	movq	-8(%rbp), %rax
	movq	%rax, -16(%rbp)                 # 8-byte Spill
	callq	_ZSt4moveIRSt10unique_ptrI10SensorBaseSt14default_deleteIS1_EEEONSt16remove_referenceIT_E4typeEOS7_
	movq	-16(%rbp), %rdi                 # 8-byte Reload
	movq	%rax, %rsi
	callq	_ZNSt6vectorISt10unique_ptrI10SensorBaseSt14default_deleteIS1_EESaIS4_EE9push_backEOS4_
	addq	$32, %rsp
	popq	%rbp
	.cfi_def_cfa %rsp, 8
	retq
.Lfunc_end8:
	.size	_ZN14SensorPipeline3addESt10unique_ptrI10SensorBaseSt14default_deleteIS1_EE, .Lfunc_end8-_ZN14SensorPipeline3addESt10unique_ptrI10SensorBaseSt14default_deleteIS1_EE
	.cfi_endproc
                                        # -- End function
	.section	.text._ZSt4moveIRSt10unique_ptrI9ImuSensorSt14default_deleteIS1_EEEONSt16remove_referenceIT_E4typeEOS7_,"axG",@progbits,_ZSt4moveIRSt10unique_ptrI9ImuSensorSt14default_deleteIS1_EEEONSt16remove_referenceIT_E4typeEOS7_,comdat
	.weak	_ZSt4moveIRSt10unique_ptrI9ImuSensorSt14default_deleteIS1_EEEONSt16remove_referenceIT_E4typeEOS7_ # -- Begin function _ZSt4moveIRSt10unique_ptrI9ImuSensorSt14default_deleteIS1_EEEONSt16remove_referenceIT_E4typeEOS7_
	.p2align	4, 0x90
	.type	_ZSt4moveIRSt10unique_ptrI9ImuSensorSt14default_deleteIS1_EEEONSt16remove_referenceIT_E4typeEOS7_,@function
_ZSt4moveIRSt10unique_ptrI9ImuSensorSt14default_deleteIS1_EEEONSt16remove_referenceIT_E4typeEOS7_: # @_ZSt4moveIRSt10unique_ptrI9ImuSensorSt14default_deleteIS1_EEEONSt16remove_referenceIT_E4typeEOS7_
	.cfi_startproc
# %bb.0:
	pushq	%rbp
	.cfi_def_cfa_offset 16
	.cfi_offset %rbp, -16
	movq	%rsp, %rbp
	.cfi_def_cfa_register %rbp
	movq	%rdi, -8(%rbp)
	movq	-8(%rbp), %rax
	popq	%rbp
	.cfi_def_cfa %rsp, 8
	retq
.Lfunc_end9:
	.size	_ZSt4moveIRSt10unique_ptrI9ImuSensorSt14default_deleteIS1_EEEONSt16remove_referenceIT_E4typeEOS7_, .Lfunc_end9-_ZSt4moveIRSt10unique_ptrI9ImuSensorSt14default_deleteIS1_EEEONSt16remove_referenceIT_E4typeEOS7_
	.cfi_endproc
                                        # -- End function
	.section	.text._ZNSt10unique_ptrI10SensorBaseSt14default_deleteIS0_EEC2I9ImuSensorS1_IS5_EvEEOS_IT_T0_E,"axG",@progbits,_ZNSt10unique_ptrI10SensorBaseSt14default_deleteIS0_EEC2I9ImuSensorS1_IS5_EvEEOS_IT_T0_E,comdat
	.weak	_ZNSt10unique_ptrI10SensorBaseSt14default_deleteIS0_EEC2I9ImuSensorS1_IS5_EvEEOS_IT_T0_E # -- Begin function _ZNSt10unique_ptrI10SensorBaseSt14default_deleteIS0_EEC2I9ImuSensorS1_IS5_EvEEOS_IT_T0_E
	.p2align	4, 0x90
	.type	_ZNSt10unique_ptrI10SensorBaseSt14default_deleteIS0_EEC2I9ImuSensorS1_IS5_EvEEOS_IT_T0_E,@function
_ZNSt10unique_ptrI10SensorBaseSt14default_deleteIS0_EEC2I9ImuSensorS1_IS5_EvEEOS_IT_T0_E: # @_ZNSt10unique_ptrI10SensorBaseSt14default_deleteIS0_EEC2I9ImuSensorS1_IS5_EvEEOS_IT_T0_E
.Lfunc_begin6:
	.cfi_startproc
	.cfi_personality 155, DW.ref.__gxx_personality_v0
	.cfi_lsda 27, .Lexception6
# %bb.0:
	pushq	%rbp
	.cfi_def_cfa_offset 16
	.cfi_offset %rbp, -16
	movq	%rsp, %rbp
	.cfi_def_cfa_register %rbp
	subq	$32, %rsp
	movq	%rdi, -8(%rbp)
	movq	%rsi, -16(%rbp)
	movq	-8(%rbp), %rax
	movq	%rax, -32(%rbp)                 # 8-byte Spill
	movq	-16(%rbp), %rdi
	callq	_ZNSt10unique_ptrI9ImuSensorSt14default_deleteIS0_EE7releaseEv
	movq	%rax, -24(%rbp)                 # 8-byte Spill
	movq	-16(%rbp), %rdi
	callq	_ZNSt10unique_ptrI9ImuSensorSt14default_deleteIS0_EE11get_deleterEv
	movq	%rax, %rdi
	callq	_ZSt7forwardISt14default_deleteI9ImuSensorEEOT_RNSt16remove_referenceIS3_E4typeE
	movq	-32(%rbp), %rdi                 # 8-byte Reload
	movq	-24(%rbp), %rsi                 # 8-byte Reload
	movq	%rax, %rdx
.Ltmp84:
	callq	_ZNSt15__uniq_ptr_dataI10SensorBaseSt14default_deleteIS0_ELb1ELb1EECI2St15__uniq_ptr_implIS0_S2_EIS1_I9ImuSensorEEEPS0_OT_
.Ltmp85:
	jmp	.LBB10_1
.LBB10_1:
	addq	$32, %rsp
	popq	%rbp
	.cfi_def_cfa %rsp, 8
	retq
.LBB10_2:
	.cfi_def_cfa %rbp, 16
.Ltmp86:
	movq	%rax, %rdi
                                        # kill: def $eax killed $edx killed $rdx
	callq	__clang_call_terminate
.Lfunc_end10:
	.size	_ZNSt10unique_ptrI10SensorBaseSt14default_deleteIS0_EEC2I9ImuSensorS1_IS5_EvEEOS_IT_T0_E, .Lfunc_end10-_ZNSt10unique_ptrI10SensorBaseSt14default_deleteIS0_EEC2I9ImuSensorS1_IS5_EvEEOS_IT_T0_E
	.cfi_endproc
	.section	.gcc_except_table._ZNSt10unique_ptrI10SensorBaseSt14default_deleteIS0_EEC2I9ImuSensorS1_IS5_EvEEOS_IT_T0_E,"aG",@progbits,_ZNSt10unique_ptrI10SensorBaseSt14default_deleteIS0_EEC2I9ImuSensorS1_IS5_EvEEOS_IT_T0_E,comdat
	.p2align	2
GCC_except_table10:
.Lexception6:
	.byte	255                             # @LPStart Encoding = omit
	.byte	155                             # @TType Encoding = indirect pcrel sdata4
	.uleb128 .Lttbase0-.Lttbaseref0
.Lttbaseref0:
	.byte	1                               # Call site Encoding = uleb128
	.uleb128 .Lcst_end6-.Lcst_begin6
.Lcst_begin6:
	.uleb128 .Ltmp84-.Lfunc_begin6          # >> Call Site 1 <<
	.uleb128 .Ltmp85-.Ltmp84                #   Call between .Ltmp84 and .Ltmp85
	.uleb128 .Ltmp86-.Lfunc_begin6          #     jumps to .Ltmp86
	.byte	1                               #   On action: 1
.Lcst_end6:
	.byte	1                               # >> Action Record 1 <<
                                        #   Catch TypeInfo 1
	.byte	0                               #   No further actions
	.p2align	2
                                        # >> Catch TypeInfos <<
	.long	0                               # TypeInfo 1
.Lttbase0:
	.p2align	2
                                        # -- End function
	.section	.text._ZNSt10unique_ptrI10SensorBaseSt14default_deleteIS0_EED2Ev,"axG",@progbits,_ZNSt10unique_ptrI10SensorBaseSt14default_deleteIS0_EED2Ev,comdat
	.weak	_ZNSt10unique_ptrI10SensorBaseSt14default_deleteIS0_EED2Ev # -- Begin function _ZNSt10unique_ptrI10SensorBaseSt14default_deleteIS0_EED2Ev
	.p2align	4, 0x90
	.type	_ZNSt10unique_ptrI10SensorBaseSt14default_deleteIS0_EED2Ev,@function
_ZNSt10unique_ptrI10SensorBaseSt14default_deleteIS0_EED2Ev: # @_ZNSt10unique_ptrI10SensorBaseSt14default_deleteIS0_EED2Ev
.Lfunc_begin7:
	.cfi_startproc
	.cfi_personality 155, DW.ref.__gxx_personality_v0
	.cfi_lsda 27, .Lexception7
# %bb.0:
	pushq	%rbp
	.cfi_def_cfa_offset 16
	.cfi_offset %rbp, -16
	movq	%rsp, %rbp
	.cfi_def_cfa_register %rbp
	subq	$32, %rsp
	movq	%rdi, -8(%rbp)
	movq	-8(%rbp), %rdi
	movq	%rdi, -24(%rbp)                 # 8-byte Spill
	callq	_ZNSt15__uniq_ptr_implI10SensorBaseSt14default_deleteIS0_EE6_M_ptrEv
	movq	%rax, -16(%rbp)
	movq	-16(%rbp), %rax
	cmpq	$0, (%rax)
	je	.LBB11_3
# %bb.1:
	movq	-24(%rbp), %rdi                 # 8-byte Reload
	callq	_ZNSt10unique_ptrI10SensorBaseSt14default_deleteIS0_EE11get_deleterEv
	movq	%rax, -32(%rbp)                 # 8-byte Spill
	movq	-16(%rbp), %rdi
	callq	_ZSt4moveIRP10SensorBaseEONSt16remove_referenceIT_E4typeEOS4_
	movq	-32(%rbp), %rdi                 # 8-byte Reload
	movq	(%rax), %rsi
.Ltmp87:
	callq	_ZNKSt14default_deleteI10SensorBaseEclEPS0_
.Ltmp88:
	jmp	.LBB11_2
.LBB11_2:
	jmp	.LBB11_3
.LBB11_3:
	movq	-16(%rbp), %rax
	movq	$0, (%rax)
	addq	$32, %rsp
	popq	%rbp
	.cfi_def_cfa %rsp, 8
	retq
.LBB11_4:
	.cfi_def_cfa %rbp, 16
.Ltmp89:
	movq	%rax, %rdi
                                        # kill: def $eax killed $edx killed $rdx
	callq	__clang_call_terminate
.Lfunc_end11:
	.size	_ZNSt10unique_ptrI10SensorBaseSt14default_deleteIS0_EED2Ev, .Lfunc_end11-_ZNSt10unique_ptrI10SensorBaseSt14default_deleteIS0_EED2Ev
	.cfi_endproc
	.section	.gcc_except_table._ZNSt10unique_ptrI10SensorBaseSt14default_deleteIS0_EED2Ev,"aG",@progbits,_ZNSt10unique_ptrI10SensorBaseSt14default_deleteIS0_EED2Ev,comdat
	.p2align	2
GCC_except_table11:
.Lexception7:
	.byte	255                             # @LPStart Encoding = omit
	.byte	155                             # @TType Encoding = indirect pcrel sdata4
	.uleb128 .Lttbase1-.Lttbaseref1
.Lttbaseref1:
	.byte	1                               # Call site Encoding = uleb128
	.uleb128 .Lcst_end7-.Lcst_begin7
.Lcst_begin7:
	.uleb128 .Ltmp87-.Lfunc_begin7          # >> Call Site 1 <<
	.uleb128 .Ltmp88-.Ltmp87                #   Call between .Ltmp87 and .Ltmp88
	.uleb128 .Ltmp89-.Lfunc_begin7          #     jumps to .Ltmp89
	.byte	1                               #   On action: 1
.Lcst_end7:
	.byte	1                               # >> Action Record 1 <<
                                        #   Catch TypeInfo 1
	.byte	0                               #   No further actions
	.p2align	2
                                        # >> Catch TypeInfos <<
	.long	0                               # TypeInfo 1
.Lttbase1:
	.p2align	2
                                        # -- End function
	.section	.text._ZSt4moveIRSt10unique_ptrI11FilteredImuSt14default_deleteIS1_EEEONSt16remove_referenceIT_E4typeEOS7_,"axG",@progbits,_ZSt4moveIRSt10unique_ptrI11FilteredImuSt14default_deleteIS1_EEEONSt16remove_referenceIT_E4typeEOS7_,comdat
	.weak	_ZSt4moveIRSt10unique_ptrI11FilteredImuSt14default_deleteIS1_EEEONSt16remove_referenceIT_E4typeEOS7_ # -- Begin function _ZSt4moveIRSt10unique_ptrI11FilteredImuSt14default_deleteIS1_EEEONSt16remove_referenceIT_E4typeEOS7_
	.p2align	4, 0x90
	.type	_ZSt4moveIRSt10unique_ptrI11FilteredImuSt14default_deleteIS1_EEEONSt16remove_referenceIT_E4typeEOS7_,@function
_ZSt4moveIRSt10unique_ptrI11FilteredImuSt14default_deleteIS1_EEEONSt16remove_referenceIT_E4typeEOS7_: # @_ZSt4moveIRSt10unique_ptrI11FilteredImuSt14default_deleteIS1_EEEONSt16remove_referenceIT_E4typeEOS7_
	.cfi_startproc
# %bb.0:
	pushq	%rbp
	.cfi_def_cfa_offset 16
	.cfi_offset %rbp, -16
	movq	%rsp, %rbp
	.cfi_def_cfa_register %rbp
	movq	%rdi, -8(%rbp)
	movq	-8(%rbp), %rax
	popq	%rbp
	.cfi_def_cfa %rsp, 8
	retq
.Lfunc_end12:
	.size	_ZSt4moveIRSt10unique_ptrI11FilteredImuSt14default_deleteIS1_EEEONSt16remove_referenceIT_E4typeEOS7_, .Lfunc_end12-_ZSt4moveIRSt10unique_ptrI11FilteredImuSt14default_deleteIS1_EEEONSt16remove_referenceIT_E4typeEOS7_
	.cfi_endproc
                                        # -- End function
	.section	.text._ZNSt10unique_ptrI10SensorBaseSt14default_deleteIS0_EEC2I11FilteredImuS1_IS5_EvEEOS_IT_T0_E,"axG",@progbits,_ZNSt10unique_ptrI10SensorBaseSt14default_deleteIS0_EEC2I11FilteredImuS1_IS5_EvEEOS_IT_T0_E,comdat
	.weak	_ZNSt10unique_ptrI10SensorBaseSt14default_deleteIS0_EEC2I11FilteredImuS1_IS5_EvEEOS_IT_T0_E # -- Begin function _ZNSt10unique_ptrI10SensorBaseSt14default_deleteIS0_EEC2I11FilteredImuS1_IS5_EvEEOS_IT_T0_E
	.p2align	4, 0x90
	.type	_ZNSt10unique_ptrI10SensorBaseSt14default_deleteIS0_EEC2I11FilteredImuS1_IS5_EvEEOS_IT_T0_E,@function
_ZNSt10unique_ptrI10SensorBaseSt14default_deleteIS0_EEC2I11FilteredImuS1_IS5_EvEEOS_IT_T0_E: # @_ZNSt10unique_ptrI10SensorBaseSt14default_deleteIS0_EEC2I11FilteredImuS1_IS5_EvEEOS_IT_T0_E
.Lfunc_begin8:
	.cfi_startproc
	.cfi_personality 155, DW.ref.__gxx_personality_v0
	.cfi_lsda 27, .Lexception8
# %bb.0:
	pushq	%rbp
	.cfi_def_cfa_offset 16
	.cfi_offset %rbp, -16
	movq	%rsp, %rbp
	.cfi_def_cfa_register %rbp
	subq	$32, %rsp
	movq	%rdi, -8(%rbp)
	movq	%rsi, -16(%rbp)
	movq	-8(%rbp), %rax
	movq	%rax, -32(%rbp)                 # 8-byte Spill
	movq	-16(%rbp), %rdi
	callq	_ZNSt10unique_ptrI11FilteredImuSt14default_deleteIS0_EE7releaseEv
	movq	%rax, -24(%rbp)                 # 8-byte Spill
	movq	-16(%rbp), %rdi
	callq	_ZNSt10unique_ptrI11FilteredImuSt14default_deleteIS0_EE11get_deleterEv
	movq	%rax, %rdi
	callq	_ZSt7forwardISt14default_deleteI11FilteredImuEEOT_RNSt16remove_referenceIS3_E4typeE
	movq	-32(%rbp), %rdi                 # 8-byte Reload
	movq	-24(%rbp), %rsi                 # 8-byte Reload
	movq	%rax, %rdx
.Ltmp90:
	callq	_ZNSt15__uniq_ptr_dataI10SensorBaseSt14default_deleteIS0_ELb1ELb1EECI2St15__uniq_ptr_implIS0_S2_EIS1_I11FilteredImuEEEPS0_OT_
.Ltmp91:
	jmp	.LBB13_1
.LBB13_1:
	addq	$32, %rsp
	popq	%rbp
	.cfi_def_cfa %rsp, 8
	retq
.LBB13_2:
	.cfi_def_cfa %rbp, 16
.Ltmp92:
	movq	%rax, %rdi
                                        # kill: def $eax killed $edx killed $rdx
	callq	__clang_call_terminate
.Lfunc_end13:
	.size	_ZNSt10unique_ptrI10SensorBaseSt14default_deleteIS0_EEC2I11FilteredImuS1_IS5_EvEEOS_IT_T0_E, .Lfunc_end13-_ZNSt10unique_ptrI10SensorBaseSt14default_deleteIS0_EEC2I11FilteredImuS1_IS5_EvEEOS_IT_T0_E
	.cfi_endproc
	.section	.gcc_except_table._ZNSt10unique_ptrI10SensorBaseSt14default_deleteIS0_EEC2I11FilteredImuS1_IS5_EvEEOS_IT_T0_E,"aG",@progbits,_ZNSt10unique_ptrI10SensorBaseSt14default_deleteIS0_EEC2I11FilteredImuS1_IS5_EvEEOS_IT_T0_E,comdat
	.p2align	2
GCC_except_table13:
.Lexception8:
	.byte	255                             # @LPStart Encoding = omit
	.byte	155                             # @TType Encoding = indirect pcrel sdata4
	.uleb128 .Lttbase2-.Lttbaseref2
.Lttbaseref2:
	.byte	1                               # Call site Encoding = uleb128
	.uleb128 .Lcst_end8-.Lcst_begin8
.Lcst_begin8:
	.uleb128 .Ltmp90-.Lfunc_begin8          # >> Call Site 1 <<
	.uleb128 .Ltmp91-.Ltmp90                #   Call between .Ltmp90 and .Ltmp91
	.uleb128 .Ltmp92-.Lfunc_begin8          #     jumps to .Ltmp92
	.byte	1                               #   On action: 1
.Lcst_end8:
	.byte	1                               # >> Action Record 1 <<
                                        #   Catch TypeInfo 1
	.byte	0                               #   No further actions
	.p2align	2
                                        # >> Catch TypeInfos <<
	.long	0                               # TypeInfo 1
.Lttbase2:
	.p2align	2
                                        # -- End function
	.section	.text._ZSt4moveIRSt10unique_ptrI12CameraSensorSt14default_deleteIS1_EEEONSt16remove_referenceIT_E4typeEOS7_,"axG",@progbits,_ZSt4moveIRSt10unique_ptrI12CameraSensorSt14default_deleteIS1_EEEONSt16remove_referenceIT_E4typeEOS7_,comdat
	.weak	_ZSt4moveIRSt10unique_ptrI12CameraSensorSt14default_deleteIS1_EEEONSt16remove_referenceIT_E4typeEOS7_ # -- Begin function _ZSt4moveIRSt10unique_ptrI12CameraSensorSt14default_deleteIS1_EEEONSt16remove_referenceIT_E4typeEOS7_
	.p2align	4, 0x90
	.type	_ZSt4moveIRSt10unique_ptrI12CameraSensorSt14default_deleteIS1_EEEONSt16remove_referenceIT_E4typeEOS7_,@function
_ZSt4moveIRSt10unique_ptrI12CameraSensorSt14default_deleteIS1_EEEONSt16remove_referenceIT_E4typeEOS7_: # @_ZSt4moveIRSt10unique_ptrI12CameraSensorSt14default_deleteIS1_EEEONSt16remove_referenceIT_E4typeEOS7_
	.cfi_startproc
# %bb.0:
	pushq	%rbp
	.cfi_def_cfa_offset 16
	.cfi_offset %rbp, -16
	movq	%rsp, %rbp
	.cfi_def_cfa_register %rbp
	movq	%rdi, -8(%rbp)
	movq	-8(%rbp), %rax
	popq	%rbp
	.cfi_def_cfa %rsp, 8
	retq
.Lfunc_end14:
	.size	_ZSt4moveIRSt10unique_ptrI12CameraSensorSt14default_deleteIS1_EEEONSt16remove_referenceIT_E4typeEOS7_, .Lfunc_end14-_ZSt4moveIRSt10unique_ptrI12CameraSensorSt14default_deleteIS1_EEEONSt16remove_referenceIT_E4typeEOS7_
	.cfi_endproc
                                        # -- End function
	.section	.text._ZNSt10unique_ptrI10SensorBaseSt14default_deleteIS0_EEC2I12CameraSensorS1_IS5_EvEEOS_IT_T0_E,"axG",@progbits,_ZNSt10unique_ptrI10SensorBaseSt14default_deleteIS0_EEC2I12CameraSensorS1_IS5_EvEEOS_IT_T0_E,comdat
	.weak	_ZNSt10unique_ptrI10SensorBaseSt14default_deleteIS0_EEC2I12CameraSensorS1_IS5_EvEEOS_IT_T0_E # -- Begin function _ZNSt10unique_ptrI10SensorBaseSt14default_deleteIS0_EEC2I12CameraSensorS1_IS5_EvEEOS_IT_T0_E
	.p2align	4, 0x90
	.type	_ZNSt10unique_ptrI10SensorBaseSt14default_deleteIS0_EEC2I12CameraSensorS1_IS5_EvEEOS_IT_T0_E,@function
_ZNSt10unique_ptrI10SensorBaseSt14default_deleteIS0_EEC2I12CameraSensorS1_IS5_EvEEOS_IT_T0_E: # @_ZNSt10unique_ptrI10SensorBaseSt14default_deleteIS0_EEC2I12CameraSensorS1_IS5_EvEEOS_IT_T0_E
.Lfunc_begin9:
	.cfi_startproc
	.cfi_personality 155, DW.ref.__gxx_personality_v0
	.cfi_lsda 27, .Lexception9
# %bb.0:
	pushq	%rbp
	.cfi_def_cfa_offset 16
	.cfi_offset %rbp, -16
	movq	%rsp, %rbp
	.cfi_def_cfa_register %rbp
	subq	$32, %rsp
	movq	%rdi, -8(%rbp)
	movq	%rsi, -16(%rbp)
	movq	-8(%rbp), %rax
	movq	%rax, -32(%rbp)                 # 8-byte Spill
	movq	-16(%rbp), %rdi
	callq	_ZNSt10unique_ptrI12CameraSensorSt14default_deleteIS0_EE7releaseEv
	movq	%rax, -24(%rbp)                 # 8-byte Spill
	movq	-16(%rbp), %rdi
	callq	_ZNSt10unique_ptrI12CameraSensorSt14default_deleteIS0_EE11get_deleterEv
	movq	%rax, %rdi
	callq	_ZSt7forwardISt14default_deleteI12CameraSensorEEOT_RNSt16remove_referenceIS3_E4typeE
	movq	-32(%rbp), %rdi                 # 8-byte Reload
	movq	-24(%rbp), %rsi                 # 8-byte Reload
	movq	%rax, %rdx
.Ltmp93:
	callq	_ZNSt15__uniq_ptr_dataI10SensorBaseSt14default_deleteIS0_ELb1ELb1EECI2St15__uniq_ptr_implIS0_S2_EIS1_I12CameraSensorEEEPS0_OT_
.Ltmp94:
	jmp	.LBB15_1
.LBB15_1:
	addq	$32, %rsp
	popq	%rbp
	.cfi_def_cfa %rsp, 8
	retq
.LBB15_2:
	.cfi_def_cfa %rbp, 16
.Ltmp95:
	movq	%rax, %rdi
                                        # kill: def $eax killed $edx killed $rdx
	callq	__clang_call_terminate
.Lfunc_end15:
	.size	_ZNSt10unique_ptrI10SensorBaseSt14default_deleteIS0_EEC2I12CameraSensorS1_IS5_EvEEOS_IT_T0_E, .Lfunc_end15-_ZNSt10unique_ptrI10SensorBaseSt14default_deleteIS0_EEC2I12CameraSensorS1_IS5_EvEEOS_IT_T0_E
	.cfi_endproc
	.section	.gcc_except_table._ZNSt10unique_ptrI10SensorBaseSt14default_deleteIS0_EEC2I12CameraSensorS1_IS5_EvEEOS_IT_T0_E,"aG",@progbits,_ZNSt10unique_ptrI10SensorBaseSt14default_deleteIS0_EEC2I12CameraSensorS1_IS5_EvEEOS_IT_T0_E,comdat
	.p2align	2
GCC_except_table15:
.Lexception9:
	.byte	255                             # @LPStart Encoding = omit
	.byte	155                             # @TType Encoding = indirect pcrel sdata4
	.uleb128 .Lttbase3-.Lttbaseref3
.Lttbaseref3:
	.byte	1                               # Call site Encoding = uleb128
	.uleb128 .Lcst_end9-.Lcst_begin9
.Lcst_begin9:
	.uleb128 .Ltmp93-.Lfunc_begin9          # >> Call Site 1 <<
	.uleb128 .Ltmp94-.Ltmp93                #   Call between .Ltmp93 and .Ltmp94
	.uleb128 .Ltmp95-.Lfunc_begin9          #     jumps to .Ltmp95
	.byte	1                               #   On action: 1
.Lcst_end9:
	.byte	1                               # >> Action Record 1 <<
                                        #   Catch TypeInfo 1
	.byte	0                               #   No further actions
	.p2align	2
                                        # >> Catch TypeInfos <<
	.long	0                               # TypeInfo 1
.Lttbase3:
	.p2align	2
                                        # -- End function
	.section	.text._ZSt4moveIRSt10unique_ptrI11LidarSensorSt14default_deleteIS1_EEEONSt16remove_referenceIT_E4typeEOS7_,"axG",@progbits,_ZSt4moveIRSt10unique_ptrI11LidarSensorSt14default_deleteIS1_EEEONSt16remove_referenceIT_E4typeEOS7_,comdat
	.weak	_ZSt4moveIRSt10unique_ptrI11LidarSensorSt14default_deleteIS1_EEEONSt16remove_referenceIT_E4typeEOS7_ # -- Begin function _ZSt4moveIRSt10unique_ptrI11LidarSensorSt14default_deleteIS1_EEEONSt16remove_referenceIT_E4typeEOS7_
	.p2align	4, 0x90
	.type	_ZSt4moveIRSt10unique_ptrI11LidarSensorSt14default_deleteIS1_EEEONSt16remove_referenceIT_E4typeEOS7_,@function
_ZSt4moveIRSt10unique_ptrI11LidarSensorSt14default_deleteIS1_EEEONSt16remove_referenceIT_E4typeEOS7_: # @_ZSt4moveIRSt10unique_ptrI11LidarSensorSt14default_deleteIS1_EEEONSt16remove_referenceIT_E4typeEOS7_
	.cfi_startproc
# %bb.0:
	pushq	%rbp
	.cfi_def_cfa_offset 16
	.cfi_offset %rbp, -16
	movq	%rsp, %rbp
	.cfi_def_cfa_register %rbp
	movq	%rdi, -8(%rbp)
	movq	-8(%rbp), %rax
	popq	%rbp
	.cfi_def_cfa %rsp, 8
	retq
.Lfunc_end16:
	.size	_ZSt4moveIRSt10unique_ptrI11LidarSensorSt14default_deleteIS1_EEEONSt16remove_referenceIT_E4typeEOS7_, .Lfunc_end16-_ZSt4moveIRSt10unique_ptrI11LidarSensorSt14default_deleteIS1_EEEONSt16remove_referenceIT_E4typeEOS7_
	.cfi_endproc
                                        # -- End function
	.section	.text._ZNSt10unique_ptrI10SensorBaseSt14default_deleteIS0_EEC2I11LidarSensorS1_IS5_EvEEOS_IT_T0_E,"axG",@progbits,_ZNSt10unique_ptrI10SensorBaseSt14default_deleteIS0_EEC2I11LidarSensorS1_IS5_EvEEOS_IT_T0_E,comdat
	.weak	_ZNSt10unique_ptrI10SensorBaseSt14default_deleteIS0_EEC2I11LidarSensorS1_IS5_EvEEOS_IT_T0_E # -- Begin function _ZNSt10unique_ptrI10SensorBaseSt14default_deleteIS0_EEC2I11LidarSensorS1_IS5_EvEEOS_IT_T0_E
	.p2align	4, 0x90
	.type	_ZNSt10unique_ptrI10SensorBaseSt14default_deleteIS0_EEC2I11LidarSensorS1_IS5_EvEEOS_IT_T0_E,@function
_ZNSt10unique_ptrI10SensorBaseSt14default_deleteIS0_EEC2I11LidarSensorS1_IS5_EvEEOS_IT_T0_E: # @_ZNSt10unique_ptrI10SensorBaseSt14default_deleteIS0_EEC2I11LidarSensorS1_IS5_EvEEOS_IT_T0_E
.Lfunc_begin10:
	.cfi_startproc
	.cfi_personality 155, DW.ref.__gxx_personality_v0
	.cfi_lsda 27, .Lexception10
# %bb.0:
	pushq	%rbp
	.cfi_def_cfa_offset 16
	.cfi_offset %rbp, -16
	movq	%rsp, %rbp
	.cfi_def_cfa_register %rbp
	subq	$32, %rsp
	movq	%rdi, -8(%rbp)
	movq	%rsi, -16(%rbp)
	movq	-8(%rbp), %rax
	movq	%rax, -32(%rbp)                 # 8-byte Spill
	movq	-16(%rbp), %rdi
	callq	_ZNSt10unique_ptrI11LidarSensorSt14default_deleteIS0_EE7releaseEv
	movq	%rax, -24(%rbp)                 # 8-byte Spill
	movq	-16(%rbp), %rdi
	callq	_ZNSt10unique_ptrI11LidarSensorSt14default_deleteIS0_EE11get_deleterEv
	movq	%rax, %rdi
	callq	_ZSt7forwardISt14default_deleteI11LidarSensorEEOT_RNSt16remove_referenceIS3_E4typeE
	movq	-32(%rbp), %rdi                 # 8-byte Reload
	movq	-24(%rbp), %rsi                 # 8-byte Reload
	movq	%rax, %rdx
.Ltmp96:
	callq	_ZNSt15__uniq_ptr_dataI10SensorBaseSt14default_deleteIS0_ELb1ELb1EECI2St15__uniq_ptr_implIS0_S2_EIS1_I11LidarSensorEEEPS0_OT_
.Ltmp97:
	jmp	.LBB17_1
.LBB17_1:
	addq	$32, %rsp
	popq	%rbp
	.cfi_def_cfa %rsp, 8
	retq
.LBB17_2:
	.cfi_def_cfa %rbp, 16
.Ltmp98:
	movq	%rax, %rdi
                                        # kill: def $eax killed $edx killed $rdx
	callq	__clang_call_terminate
.Lfunc_end17:
	.size	_ZNSt10unique_ptrI10SensorBaseSt14default_deleteIS0_EEC2I11LidarSensorS1_IS5_EvEEOS_IT_T0_E, .Lfunc_end17-_ZNSt10unique_ptrI10SensorBaseSt14default_deleteIS0_EEC2I11LidarSensorS1_IS5_EvEEOS_IT_T0_E
	.cfi_endproc
	.section	.gcc_except_table._ZNSt10unique_ptrI10SensorBaseSt14default_deleteIS0_EEC2I11LidarSensorS1_IS5_EvEEOS_IT_T0_E,"aG",@progbits,_ZNSt10unique_ptrI10SensorBaseSt14default_deleteIS0_EEC2I11LidarSensorS1_IS5_EvEEOS_IT_T0_E,comdat
	.p2align	2
GCC_except_table17:
.Lexception10:
	.byte	255                             # @LPStart Encoding = omit
	.byte	155                             # @TType Encoding = indirect pcrel sdata4
	.uleb128 .Lttbase4-.Lttbaseref4
.Lttbaseref4:
	.byte	1                               # Call site Encoding = uleb128
	.uleb128 .Lcst_end10-.Lcst_begin10
.Lcst_begin10:
	.uleb128 .Ltmp96-.Lfunc_begin10         # >> Call Site 1 <<
	.uleb128 .Ltmp97-.Ltmp96                #   Call between .Ltmp96 and .Ltmp97
	.uleb128 .Ltmp98-.Lfunc_begin10         #     jumps to .Ltmp98
	.byte	1                               #   On action: 1
.Lcst_end10:
	.byte	1                               # >> Action Record 1 <<
                                        #   Catch TypeInfo 1
	.byte	0                               #   No further actions
	.p2align	2
                                        # >> Catch TypeInfos <<
	.long	0                               # TypeInfo 1
.Lttbase4:
	.p2align	2
                                        # -- End function
	.section	.text._ZN14SensorPipeline5mergeEOS_,"axG",@progbits,_ZN14SensorPipeline5mergeEOS_,comdat
	.weak	_ZN14SensorPipeline5mergeEOS_   # -- Begin function _ZN14SensorPipeline5mergeEOS_
	.p2align	4, 0x90
	.type	_ZN14SensorPipeline5mergeEOS_,@function
_ZN14SensorPipeline5mergeEOS_:          # @_ZN14SensorPipeline5mergeEOS_
	.cfi_startproc
# %bb.0:
	pushq	%rbp
	.cfi_def_cfa_offset 16
	.cfi_offset %rbp, -16
	movq	%rsp, %rbp
	.cfi_def_cfa_register %rbp
	subq	$64, %rsp
	movq	%rdi, -8(%rbp)
	movq	%rsi, -16(%rbp)
	movq	-8(%rbp), %rdi
	movq	%rdi, -56(%rbp)                 # 8-byte Spill
	callq	_ZNKSt6vectorISt10unique_ptrI10SensorBaseSt14default_deleteIS1_EESaIS4_EE4sizeEv
	movq	%rax, -64(%rbp)                 # 8-byte Spill
	movq	-16(%rbp), %rdi
	callq	_ZNKSt6vectorISt10unique_ptrI10SensorBaseSt14default_deleteIS1_EESaIS4_EE4sizeEv
	movq	-64(%rbp), %rsi                 # 8-byte Reload
	movq	-56(%rbp), %rdi                 # 8-byte Reload
	addq	%rax, %rsi
	callq	_ZNSt6vectorISt10unique_ptrI10SensorBaseSt14default_deleteIS1_EESaIS4_EE7reserveEm
	movq	-16(%rbp), %rax
	movq	%rax, -24(%rbp)
	movq	-24(%rbp), %rdi
	callq	_ZNSt6vectorISt10unique_ptrI10SensorBaseSt14default_deleteIS1_EESaIS4_EE5beginEv
	movq	%rax, -32(%rbp)
	movq	-24(%rbp), %rdi
	callq	_ZNSt6vectorISt10unique_ptrI10SensorBaseSt14default_deleteIS1_EESaIS4_EE3endEv
	movq	%rax, -40(%rbp)
.LBB18_1:                               # =>This Inner Loop Header: Depth=1
	leaq	-32(%rbp), %rdi
	leaq	-40(%rbp), %rsi
	callq	_ZN9__gnu_cxxeqIPSt10unique_ptrI10SensorBaseSt14default_deleteIS2_EESt6vectorIS5_SaIS5_EEEEbRKNS_17__normal_iteratorIT_T0_EESF_
	xorb	$-1, %al
	testb	$1, %al
	jne	.LBB18_2
	jmp	.LBB18_4
.LBB18_2:                               #   in Loop: Header=BB18_1 Depth=1
	leaq	-32(%rbp), %rdi
	callq	_ZNK9__gnu_cxx17__normal_iteratorIPSt10unique_ptrI10SensorBaseSt14default_deleteIS2_EESt6vectorIS5_SaIS5_EEEdeEv
	movq	%rax, -48(%rbp)
	movq	-48(%rbp), %rdi
	callq	_ZSt4moveIRSt10unique_ptrI10SensorBaseSt14default_deleteIS1_EEEONSt16remove_referenceIT_E4typeEOS7_
	movq	-56(%rbp), %rdi                 # 8-byte Reload
	movq	%rax, %rsi
	callq	_ZNSt6vectorISt10unique_ptrI10SensorBaseSt14default_deleteIS1_EESaIS4_EE9push_backEOS4_
# %bb.3:                                #   in Loop: Header=BB18_1 Depth=1
	leaq	-32(%rbp), %rdi
	callq	_ZN9__gnu_cxx17__normal_iteratorIPSt10unique_ptrI10SensorBaseSt14default_deleteIS2_EESt6vectorIS5_SaIS5_EEEppEv
	jmp	.LBB18_1
.LBB18_4:
	movq	-16(%rbp), %rdi
	callq	_ZNSt6vectorISt10unique_ptrI10SensorBaseSt14default_deleteIS1_EESaIS4_EE5clearEv
	addq	$64, %rsp
	popq	%rbp
	.cfi_def_cfa %rsp, 8
	retq
.Lfunc_end18:
	.size	_ZN14SensorPipeline5mergeEOS_, .Lfunc_end18-_ZN14SensorPipeline5mergeEOS_
	.cfi_endproc
                                        # -- End function
	.section	.text._ZSt4moveIR14SensorPipelineEONSt16remove_referenceIT_E4typeEOS3_,"axG",@progbits,_ZSt4moveIR14SensorPipelineEONSt16remove_referenceIT_E4typeEOS3_,comdat
	.weak	_ZSt4moveIR14SensorPipelineEONSt16remove_referenceIT_E4typeEOS3_ # -- Begin function _ZSt4moveIR14SensorPipelineEONSt16remove_referenceIT_E4typeEOS3_
	.p2align	4, 0x90
	.type	_ZSt4moveIR14SensorPipelineEONSt16remove_referenceIT_E4typeEOS3_,@function
_ZSt4moveIR14SensorPipelineEONSt16remove_referenceIT_E4typeEOS3_: # @_ZSt4moveIR14SensorPipelineEONSt16remove_referenceIT_E4typeEOS3_
	.cfi_startproc
# %bb.0:
	pushq	%rbp
	.cfi_def_cfa_offset 16
	.cfi_offset %rbp, -16
	movq	%rsp, %rbp
	.cfi_def_cfa_register %rbp
	movq	%rdi, -8(%rbp)
	movq	-8(%rbp), %rax
	popq	%rbp
	.cfi_def_cfa %rsp, 8
	retq
.Lfunc_end19:
	.size	_ZSt4moveIR14SensorPipelineEONSt16remove_referenceIT_E4typeEOS3_, .Lfunc_end19-_ZSt4moveIR14SensorPipelineEONSt16remove_referenceIT_E4typeEOS3_
	.cfi_endproc
                                        # -- End function
	.section	.text._ZN14SensorPipeline8tick_allEv,"axG",@progbits,_ZN14SensorPipeline8tick_allEv,comdat
	.weak	_ZN14SensorPipeline8tick_allEv  # -- Begin function _ZN14SensorPipeline8tick_allEv
	.p2align	4, 0x90
	.type	_ZN14SensorPipeline8tick_allEv,@function
_ZN14SensorPipeline8tick_allEv:         # @_ZN14SensorPipeline8tick_allEv
	.cfi_startproc
# %bb.0:
	pushq	%rbp
	.cfi_def_cfa_offset 16
	.cfi_offset %rbp, -16
	movq	%rsp, %rbp
	.cfi_def_cfa_register %rbp
	subq	$48, %rsp
	movq	%rdi, -8(%rbp)
	movq	-8(%rbp), %rax
	movq	%rax, -16(%rbp)
	movq	-16(%rbp), %rdi
	callq	_ZNSt6vectorISt10unique_ptrI10SensorBaseSt14default_deleteIS1_EESaIS4_EE5beginEv
	movq	%rax, -24(%rbp)
	movq	-16(%rbp), %rdi
	callq	_ZNSt6vectorISt10unique_ptrI10SensorBaseSt14default_deleteIS1_EESaIS4_EE3endEv
	movq	%rax, -32(%rbp)
.LBB20_1:                               # =>This Inner Loop Header: Depth=1
	leaq	-24(%rbp), %rdi
	leaq	-32(%rbp), %rsi
	callq	_ZN9__gnu_cxxeqIPSt10unique_ptrI10SensorBaseSt14default_deleteIS2_EESt6vectorIS5_SaIS5_EEEEbRKNS_17__normal_iteratorIT_T0_EESF_
	xorb	$-1, %al
	testb	$1, %al
	jne	.LBB20_2
	jmp	.LBB20_4
.LBB20_2:                               #   in Loop: Header=BB20_1 Depth=1
	leaq	-24(%rbp), %rdi
	callq	_ZNK9__gnu_cxx17__normal_iteratorIPSt10unique_ptrI10SensorBaseSt14default_deleteIS2_EESt6vectorIS5_SaIS5_EEEdeEv
	movq	%rax, -40(%rbp)
	movq	-40(%rbp), %rdi
	callq	_ZNKSt10unique_ptrI10SensorBaseSt14default_deleteIS0_EEptEv
	movq	%rax, %rdi
	movq	(%rdi), %rax
	callq	*32(%rax)
# %bb.3:                                #   in Loop: Header=BB20_1 Depth=1
	leaq	-24(%rbp), %rdi
	callq	_ZN9__gnu_cxx17__normal_iteratorIPSt10unique_ptrI10SensorBaseSt14default_deleteIS2_EESt6vectorIS5_SaIS5_EEEppEv
	jmp	.LBB20_1
.LBB20_4:
	addq	$48, %rsp
	popq	%rbp
	.cfi_def_cfa %rsp, 8
	retq
.Lfunc_end20:
	.size	_ZN14SensorPipeline8tick_allEv, .Lfunc_end20-_ZN14SensorPipeline8tick_allEv
	.cfi_endproc
                                        # -- End function
	.section	.text._ZNK14SensorPipeline6reportEv,"axG",@progbits,_ZNK14SensorPipeline6reportEv,comdat
	.weak	_ZNK14SensorPipeline6reportEv   # -- Begin function _ZNK14SensorPipeline6reportEv
	.p2align	4, 0x90
	.type	_ZNK14SensorPipeline6reportEv,@function
_ZNK14SensorPipeline6reportEv:          # @_ZNK14SensorPipeline6reportEv
	.cfi_startproc
# %bb.0:
	pushq	%rbp
	.cfi_def_cfa_offset 16
	.cfi_offset %rbp, -16
	movq	%rsp, %rbp
	.cfi_def_cfa_register %rbp
	subq	$48, %rsp
	movq	%rdi, -8(%rbp)
	movq	-8(%rbp), %rax
	movq	%rax, -16(%rbp)
	movq	-16(%rbp), %rdi
	callq	_ZNKSt6vectorISt10unique_ptrI10SensorBaseSt14default_deleteIS1_EESaIS4_EE5beginEv
	movq	%rax, -24(%rbp)
	movq	-16(%rbp), %rdi
	callq	_ZNKSt6vectorISt10unique_ptrI10SensorBaseSt14default_deleteIS1_EESaIS4_EE3endEv
	movq	%rax, -32(%rbp)
.LBB21_1:                               # =>This Inner Loop Header: Depth=1
	leaq	-24(%rbp), %rdi
	leaq	-32(%rbp), %rsi
	callq	_ZN9__gnu_cxxeqIPKSt10unique_ptrI10SensorBaseSt14default_deleteIS2_EESt6vectorIS5_SaIS5_EEEEbRKNS_17__normal_iteratorIT_T0_EESG_
	xorb	$-1, %al
	testb	$1, %al
	jne	.LBB21_2
	jmp	.LBB21_4
.LBB21_2:                               #   in Loop: Header=BB21_1 Depth=1
	leaq	-24(%rbp), %rdi
	callq	_ZNK9__gnu_cxx17__normal_iteratorIPKSt10unique_ptrI10SensorBaseSt14default_deleteIS2_EESt6vectorIS5_SaIS5_EEEdeEv
	movq	%rax, -40(%rbp)
	movq	-40(%rbp), %rdi
	callq	_ZNKSt10unique_ptrI10SensorBaseSt14default_deleteIS0_EEptEv
	movq	%rax, %rdi
	callq	_ZN10SensorBase8describeEv
# %bb.3:                                #   in Loop: Header=BB21_1 Depth=1
	leaq	-24(%rbp), %rdi
	callq	_ZN9__gnu_cxx17__normal_iteratorIPKSt10unique_ptrI10SensorBaseSt14default_deleteIS2_EESt6vectorIS5_SaIS5_EEEppEv
	jmp	.LBB21_1
.LBB21_4:
	addq	$48, %rsp
	popq	%rbp
	.cfi_def_cfa %rsp, 8
	retq
.Lfunc_end21:
	.size	_ZNK14SensorPipeline6reportEv, .Lfunc_end21-_ZNK14SensorPipeline6reportEv
	.cfi_endproc
                                        # -- End function
	.section	.text._ZSt6formatIJjEENSt7__cxx1112basic_stringIcSt11char_traitsIcESaIcEEESt19basic_format_stringIcJDpNSt13type_identityIT_E4typeEEEDpOS8_,"axG",@progbits,_ZSt6formatIJjEENSt7__cxx1112basic_stringIcSt11char_traitsIcESaIcEEESt19basic_format_stringIcJDpNSt13type_identityIT_E4typeEEEDpOS8_,comdat
	.weak	_ZSt6formatIJjEENSt7__cxx1112basic_stringIcSt11char_traitsIcESaIcEEESt19basic_format_stringIcJDpNSt13type_identityIT_E4typeEEEDpOS8_ # -- Begin function _ZSt6formatIJjEENSt7__cxx1112basic_stringIcSt11char_traitsIcESaIcEEESt19basic_format_stringIcJDpNSt13type_identityIT_E4typeEEEDpOS8_
	.p2align	4, 0x90
	.type	_ZSt6formatIJjEENSt7__cxx1112basic_stringIcSt11char_traitsIcESaIcEEESt19basic_format_stringIcJDpNSt13type_identityIT_E4typeEEEDpOS8_,@function
_ZSt6formatIJjEENSt7__cxx1112basic_stringIcSt11char_traitsIcESaIcEEESt19basic_format_stringIcJDpNSt13type_identityIT_E4typeEEEDpOS8_: # @_ZSt6formatIJjEENSt7__cxx1112basic_stringIcSt11char_traitsIcESaIcEEESt19basic_format_stringIcJDpNSt13type_identityIT_E4typeEEEDpOS8_
.Lfunc_begin11:
	.cfi_startproc
	.cfi_personality 155, DW.ref.__gxx_personality_v0
	.cfi_lsda 27, .Lexception11
# %bb.0:
	pushq	%rbp
	.cfi_def_cfa_offset 16
	.cfi_offset %rbp, -16
	movq	%rsp, %rbp
	.cfi_def_cfa_register %rbp
	subq	$208, %rsp
	movq	%rdi, -200(%rbp)                # 8-byte Spill
	movq	%rdi, %rax
	movq	%rax, -192(%rbp)                # 8-byte Spill
	movq	%rdi, -80(%rbp)
	movq	%rsi, -96(%rbp)
	movq	%rdx, -88(%rbp)
	movq	%rcx, -104(%rbp)
	leaq	-96(%rbp), %rax
	movq	%rax, -72(%rbp)
	movq	-72(%rbp), %rax
	movups	(%rax), %xmm0
	movaps	%xmm0, -64(%rbp)
	movq	-64(%rbp), %rcx
	movq	-56(%rbp), %rax
	movq	%rcx, -120(%rbp)
	movq	%rax, -112(%rbp)
	movq	-104(%rbp), %rax
	movq	%rax, -40(%rbp)
	movq	-40(%rbp), %rax
	leaq	-32(%rbp), %rcx
	movq	%rcx, -8(%rbp)
	movq	%rax, -16(%rbp)
	movq	-8(%rbp), %rax
	movq	%rax, -184(%rbp)                # 8-byte Spill
	movq	-16(%rbp), %rdi
.Ltmp99:
	callq	_ZNSt8__format10_Arg_storeISt20basic_format_contextINS_10_Sink_iterIcEEcEJjEE11_S_make_eltIjEENS_10_Arg_valueIS4_EERT_
.Ltmp100:
	movq	%rdx, -176(%rbp)                # 8-byte Spill
	movq	%rax, -168(%rbp)                # 8-byte Spill
	jmp	.LBB22_2
.LBB22_1:
.Ltmp101:
	movq	%rax, %rdi
                                        # kill: def $eax killed $edx killed $rdx
	callq	__clang_call_terminate
.LBB22_2:
	movq	-184(%rbp), %rax                # 8-byte Reload
	movq	-176(%rbp), %rcx                # 8-byte Reload
	movq	-168(%rbp), %rdx                # 8-byte Reload
	movq	%rdx, (%rax)
	movq	%rcx, 8(%rax)
	movq	-32(%rbp), %rcx
	movq	-24(%rbp), %rax
	movq	%rcx, -160(%rbp)
	movq	%rax, -152(%rbp)
	leaq	-136(%rbp), %rdi
	leaq	-160(%rbp), %rsi
	callq	_ZNSt17basic_format_argsISt20basic_format_contextINSt8__format10_Sink_iterIcEEcEEC2IJjEEERKNS1_10_Arg_storeIS4_JDpT_EEE
	movq	-200(%rbp), %rdi                # 8-byte Reload
	movq	-120(%rbp), %rsi
	movq	-112(%rbp), %rdx
	movq	-136(%rbp), %rcx
	movq	-128(%rbp), %r8
	callq	_ZSt7vformatB5cxx11St17basic_string_viewIcSt11char_traitsIcEESt17basic_format_argsISt20basic_format_contextINSt8__format10_Sink_iterIcEEcEE
	movq	-192(%rbp), %rax                # 8-byte Reload
	addq	$208, %rsp
	popq	%rbp
	.cfi_def_cfa %rsp, 8
	retq
.Lfunc_end22:
	.size	_ZSt6formatIJjEENSt7__cxx1112basic_stringIcSt11char_traitsIcESaIcEEESt19basic_format_stringIcJDpNSt13type_identityIT_E4typeEEEDpOS8_, .Lfunc_end22-_ZSt6formatIJjEENSt7__cxx1112basic_stringIcSt11char_traitsIcESaIcEEESt19basic_format_stringIcJDpNSt13type_identityIT_E4typeEEEDpOS8_
	.cfi_endproc
	.section	.gcc_except_table._ZSt6formatIJjEENSt7__cxx1112basic_stringIcSt11char_traitsIcESaIcEEESt19basic_format_stringIcJDpNSt13type_identityIT_E4typeEEEDpOS8_,"aG",@progbits,_ZSt6formatIJjEENSt7__cxx1112basic_stringIcSt11char_traitsIcESaIcEEESt19basic_format_stringIcJDpNSt13type_identityIT_E4typeEEEDpOS8_,comdat
	.p2align	2
GCC_except_table22:
.Lexception11:
	.byte	255                             # @LPStart Encoding = omit
	.byte	155                             # @TType Encoding = indirect pcrel sdata4
	.uleb128 .Lttbase5-.Lttbaseref5
.Lttbaseref5:
	.byte	1                               # Call site Encoding = uleb128
	.uleb128 .Lcst_end11-.Lcst_begin11
.Lcst_begin11:
	.uleb128 .Ltmp99-.Lfunc_begin11         # >> Call Site 1 <<
	.uleb128 .Ltmp100-.Ltmp99               #   Call between .Ltmp99 and .Ltmp100
	.uleb128 .Ltmp101-.Lfunc_begin11        #     jumps to .Ltmp101
	.byte	1                               #   On action: 1
	.uleb128 .Ltmp100-.Lfunc_begin11        # >> Call Site 2 <<
	.uleb128 .Lfunc_end22-.Ltmp100          #   Call between .Ltmp100 and .Lfunc_end22
	.byte	0                               #     has no landing pad
	.byte	0                               #   On action: cleanup
.Lcst_end11:
	.byte	1                               # >> Action Record 1 <<
                                        #   Catch TypeInfo 1
	.byte	0                               #   No further actions
	.p2align	2
                                        # >> Catch TypeInfos <<
	.long	0                               # TypeInfo 1
.Lttbase5:
	.p2align	2
                                        # -- End function
	.section	.text._ZNK14SensorPipeline13count_by_typeERK10SensorType,"axG",@progbits,_ZNK14SensorPipeline13count_by_typeERK10SensorType,comdat
	.weak	_ZNK14SensorPipeline13count_by_typeERK10SensorType # -- Begin function _ZNK14SensorPipeline13count_by_typeERK10SensorType
	.p2align	4, 0x90
	.type	_ZNK14SensorPipeline13count_by_typeERK10SensorType,@function
_ZNK14SensorPipeline13count_by_typeERK10SensorType: # @_ZNK14SensorPipeline13count_by_typeERK10SensorType
.Lfunc_begin12:
	.cfi_startproc
	.cfi_personality 155, DW.ref.__gxx_personality_v0
	.cfi_lsda 27, .Lexception12
# %bb.0:
	pushq	%rbp
	.cfi_def_cfa_offset 16
	.cfi_offset %rbp, -16
	movq	%rsp, %rbp
	.cfi_def_cfa_register %rbp
	subq	$144, %rsp
	movq	%rdi, -8(%rbp)
	movq	%rsi, -16(%rbp)
	movq	-8(%rbp), %rax
	movl	$0, -20(%rbp)
	movq	%rax, -32(%rbp)
	movq	-32(%rbp), %rdi
	callq	_ZNKSt6vectorISt10unique_ptrI10SensorBaseSt14default_deleteIS1_EESaIS4_EE5beginEv
	movq	%rax, -40(%rbp)
	movq	-32(%rbp), %rdi
	callq	_ZNKSt6vectorISt10unique_ptrI10SensorBaseSt14default_deleteIS1_EESaIS4_EE3endEv
	movq	%rax, -48(%rbp)
.LBB23_1:                               # =>This Inner Loop Header: Depth=1
	leaq	-40(%rbp), %rdi
	leaq	-48(%rbp), %rsi
	callq	_ZN9__gnu_cxxeqIPKSt10unique_ptrI10SensorBaseSt14default_deleteIS2_EESt6vectorIS5_SaIS5_EEEEbRKNS_17__normal_iteratorIT_T0_EESG_
	xorb	$-1, %al
	testb	$1, %al
	jne	.LBB23_2
	jmp	.LBB23_8
.LBB23_2:                               #   in Loop: Header=BB23_1 Depth=1
	leaq	-40(%rbp), %rdi
	callq	_ZNK9__gnu_cxx17__normal_iteratorIPKSt10unique_ptrI10SensorBaseSt14default_deleteIS2_EESt6vectorIS5_SaIS5_EEEdeEv
	movq	%rax, -56(%rbp)
	movq	-56(%rbp), %rdi
	callq	_ZNKSt10unique_ptrI10SensorBaseSt14default_deleteIS0_EEptEv
	movq	%rax, %rsi
	movq	(%rsi), %rax
	movq	24(%rax), %rax
	leaq	-88(%rbp), %rdi
	callq	*%rax
	movq	-16(%rbp), %rax
	movl	(%rax), %esi
.Ltmp102:
	leaq	-120(%rbp), %rdi
	callq	_Z9to_stringB5cxx1110SensorType@PLT
.Ltmp103:
	jmp	.LBB23_3
.LBB23_3:                               #   in Loop: Header=BB23_1 Depth=1
	leaq	-88(%rbp), %rdi
	leaq	-120(%rbp), %rsi
	callq	_ZSteqIcSt11char_traitsIcESaIcEEbRKNSt7__cxx1112basic_stringIT_T0_T1_EESA_
	movb	%al, -133(%rbp)                 # 1-byte Spill
	leaq	-120(%rbp), %rdi
	callq	_ZNSt7__cxx1112basic_stringIcSt11char_traitsIcESaIcEED2Ev
	leaq	-88(%rbp), %rdi
	callq	_ZNSt7__cxx1112basic_stringIcSt11char_traitsIcESaIcEED2Ev
	movb	-133(%rbp), %al                 # 1-byte Reload
	testb	$1, %al
	jne	.LBB23_4
	jmp	.LBB23_6
.LBB23_4:                               #   in Loop: Header=BB23_1 Depth=1
	movl	-20(%rbp), %eax
	addl	$1, %eax
	movl	%eax, -20(%rbp)
	jmp	.LBB23_6
.LBB23_5:
.Ltmp104:
	movq	%rax, %rcx
	movl	%edx, %eax
	movq	%rcx, -128(%rbp)
	movl	%eax, -132(%rbp)
	leaq	-88(%rbp), %rdi
	callq	_ZNSt7__cxx1112basic_stringIcSt11char_traitsIcESaIcEED2Ev
	jmp	.LBB23_9
.LBB23_6:                               #   in Loop: Header=BB23_1 Depth=1
	jmp	.LBB23_7
.LBB23_7:                               #   in Loop: Header=BB23_1 Depth=1
	leaq	-40(%rbp), %rdi
	callq	_ZN9__gnu_cxx17__normal_iteratorIPKSt10unique_ptrI10SensorBaseSt14default_deleteIS2_EESt6vectorIS5_SaIS5_EEEppEv
	jmp	.LBB23_1
.LBB23_8:
	movl	-20(%rbp), %eax
	addq	$144, %rsp
	popq	%rbp
	.cfi_def_cfa %rsp, 8
	retq
.LBB23_9:
	.cfi_def_cfa %rbp, 16
	movq	-128(%rbp), %rdi
	callq	_Unwind_Resume@PLT
.Lfunc_end23:
	.size	_ZNK14SensorPipeline13count_by_typeERK10SensorType, .Lfunc_end23-_ZNK14SensorPipeline13count_by_typeERK10SensorType
	.cfi_endproc
	.section	.gcc_except_table._ZNK14SensorPipeline13count_by_typeERK10SensorType,"aG",@progbits,_ZNK14SensorPipeline13count_by_typeERK10SensorType,comdat
	.p2align	2
GCC_except_table23:
.Lexception12:
	.byte	255                             # @LPStart Encoding = omit
	.byte	255                             # @TType Encoding = omit
	.byte	1                               # Call site Encoding = uleb128
	.uleb128 .Lcst_end12-.Lcst_begin12
.Lcst_begin12:
	.uleb128 .Lfunc_begin12-.Lfunc_begin12  # >> Call Site 1 <<
	.uleb128 .Ltmp102-.Lfunc_begin12        #   Call between .Lfunc_begin12 and .Ltmp102
	.byte	0                               #     has no landing pad
	.byte	0                               #   On action: cleanup
	.uleb128 .Ltmp102-.Lfunc_begin12        # >> Call Site 2 <<
	.uleb128 .Ltmp103-.Ltmp102              #   Call between .Ltmp102 and .Ltmp103
	.uleb128 .Ltmp104-.Lfunc_begin12        #     jumps to .Ltmp104
	.byte	0                               #   On action: cleanup
	.uleb128 .Ltmp103-.Lfunc_begin12        # >> Call Site 3 <<
	.uleb128 .Lfunc_end23-.Ltmp103          #   Call between .Ltmp103 and .Lfunc_end23
	.byte	0                               #     has no landing pad
	.byte	0                               #   On action: cleanup
.Lcst_end12:
	.p2align	2
                                        # -- End function
	.section	.text._ZNSt7__cxx1112basic_stringIcSt11char_traitsIcESaIcEED2Ev,"axG",@progbits,_ZNSt7__cxx1112basic_stringIcSt11char_traitsIcESaIcEED2Ev,comdat
	.weak	_ZNSt7__cxx1112basic_stringIcSt11char_traitsIcESaIcEED2Ev # -- Begin function _ZNSt7__cxx1112basic_stringIcSt11char_traitsIcESaIcEED2Ev
	.p2align	4, 0x90
	.type	_ZNSt7__cxx1112basic_stringIcSt11char_traitsIcESaIcEED2Ev,@function
_ZNSt7__cxx1112basic_stringIcSt11char_traitsIcESaIcEED2Ev: # @_ZNSt7__cxx1112basic_stringIcSt11char_traitsIcESaIcEED2Ev
.Lfunc_begin13:
	.cfi_startproc
	.cfi_personality 155, DW.ref.__gxx_personality_v0
	.cfi_lsda 27, .Lexception13
# %bb.0:
	pushq	%rbp
	.cfi_def_cfa_offset 16
	.cfi_offset %rbp, -16
	movq	%rsp, %rbp
	.cfi_def_cfa_register %rbp
	subq	$32, %rsp
	movq	%rdi, -8(%rbp)
	movq	-8(%rbp), %rdi
	movq	%rdi, -32(%rbp)                 # 8-byte Spill
.Ltmp105:
	callq	_ZNSt7__cxx1112basic_stringIcSt11char_traitsIcESaIcEE10_M_disposeEv
.Ltmp106:
	jmp	.LBB24_1
.LBB24_1:
	movq	-32(%rbp), %rdi                 # 8-byte Reload
	callq	_ZNSt7__cxx1112basic_stringIcSt11char_traitsIcESaIcEE12_Alloc_hiderD2Ev
	addq	$32, %rsp
	popq	%rbp
	.cfi_def_cfa %rsp, 8
	retq
.LBB24_2:
	.cfi_def_cfa %rbp, 16
.Ltmp107:
	movq	-32(%rbp), %rdi                 # 8-byte Reload
	movq	%rax, %rcx
	movl	%edx, %eax
	movq	%rcx, -16(%rbp)
	movl	%eax, -20(%rbp)
	callq	_ZNSt7__cxx1112basic_stringIcSt11char_traitsIcESaIcEE12_Alloc_hiderD2Ev
# %bb.3:
	movq	-16(%rbp), %rdi
	callq	__clang_call_terminate
.Lfunc_end24:
	.size	_ZNSt7__cxx1112basic_stringIcSt11char_traitsIcESaIcEED2Ev, .Lfunc_end24-_ZNSt7__cxx1112basic_stringIcSt11char_traitsIcESaIcEED2Ev
	.cfi_endproc
	.section	.gcc_except_table._ZNSt7__cxx1112basic_stringIcSt11char_traitsIcESaIcEED2Ev,"aG",@progbits,_ZNSt7__cxx1112basic_stringIcSt11char_traitsIcESaIcEED2Ev,comdat
	.p2align	2
GCC_except_table24:
.Lexception13:
	.byte	255                             # @LPStart Encoding = omit
	.byte	155                             # @TType Encoding = indirect pcrel sdata4
	.uleb128 .Lttbase6-.Lttbaseref6
.Lttbaseref6:
	.byte	1                               # Call site Encoding = uleb128
	.uleb128 .Lcst_end13-.Lcst_begin13
.Lcst_begin13:
	.uleb128 .Ltmp105-.Lfunc_begin13        # >> Call Site 1 <<
	.uleb128 .Ltmp106-.Ltmp105              #   Call between .Ltmp105 and .Ltmp106
	.uleb128 .Ltmp107-.Lfunc_begin13        #     jumps to .Ltmp107
	.byte	1                               #   On action: 1
.Lcst_end13:
	.byte	1                               # >> Action Record 1 <<
                                        #   Catch TypeInfo 1
	.byte	0                               #   No further actions
	.p2align	2
                                        # >> Catch TypeInfos <<
	.long	0                               # TypeInfo 1
.Lttbase6:
	.p2align	2
                                        # -- End function
	.section	.text._ZN14SensorPipelineC2EOS_,"axG",@progbits,_ZN14SensorPipelineC2EOS_,comdat
	.weak	_ZN14SensorPipelineC2EOS_       # -- Begin function _ZN14SensorPipelineC2EOS_
	.p2align	4, 0x90
	.type	_ZN14SensorPipelineC2EOS_,@function
_ZN14SensorPipelineC2EOS_:              # @_ZN14SensorPipelineC2EOS_
	.cfi_startproc
# %bb.0:
	pushq	%rbp
	.cfi_def_cfa_offset 16
	.cfi_offset %rbp, -16
	movq	%rsp, %rbp
	.cfi_def_cfa_register %rbp
	subq	$32, %rsp
	movq	%rdi, -8(%rbp)
	movq	%rsi, -16(%rbp)
	movq	-8(%rbp), %rdi
	movq	%rdi, -24(%rbp)                 # 8-byte Spill
	callq	_ZNSt6vectorISt10unique_ptrI10SensorBaseSt14default_deleteIS1_EESaIS4_EEC2Ev
	movq	-24(%rbp), %rax                 # 8-byte Reload
	cmpq	%rax, -16(%rbp)
	je	.LBB25_2
# %bb.1:
	movq	-16(%rbp), %rdi
	callq	_ZSt4moveIRSt6vectorISt10unique_ptrI10SensorBaseSt14default_deleteIS2_EESaIS5_EEEONSt16remove_referenceIT_E4typeEOSA_
	movq	-24(%rbp), %rdi                 # 8-byte Reload
	movq	%rax, %rsi
	callq	_ZNSt6vectorISt10unique_ptrI10SensorBaseSt14default_deleteIS1_EESaIS4_EEaSEOS6_
	movq	-16(%rbp), %rdi
	addq	$24, %rdi
	callq	_ZSt4moveIRP14SensorObserverEONSt16remove_referenceIT_E4typeEOS4_
	movq	%rax, %rcx
	movq	-24(%rbp), %rax                 # 8-byte Reload
	movq	(%rcx), %rcx
	movq	%rcx, 24(%rax)
	movq	-16(%rbp), %rdi
	callq	_ZNSt6vectorISt10unique_ptrI10SensorBaseSt14default_deleteIS1_EESaIS4_EE5clearEv
	movq	-16(%rbp), %rax
	movq	$0, 24(%rax)
.LBB25_2:
	addq	$32, %rsp
	popq	%rbp
	.cfi_def_cfa %rsp, 8
	retq
.Lfunc_end25:
	.size	_ZN14SensorPipelineC2EOS_, .Lfunc_end25-_ZN14SensorPipelineC2EOS_
	.cfi_endproc
                                        # -- End function
	.section	.text._ZN14SensorPipelineD2Ev,"axG",@progbits,_ZN14SensorPipelineD2Ev,comdat
	.weak	_ZN14SensorPipelineD2Ev         # -- Begin function _ZN14SensorPipelineD2Ev
	.p2align	4, 0x90
	.type	_ZN14SensorPipelineD2Ev,@function
_ZN14SensorPipelineD2Ev:                # @_ZN14SensorPipelineD2Ev
	.cfi_startproc
# %bb.0:
	pushq	%rbp
	.cfi_def_cfa_offset 16
	.cfi_offset %rbp, -16
	movq	%rsp, %rbp
	.cfi_def_cfa_register %rbp
	subq	$16, %rsp
	movq	%rdi, -8(%rbp)
	movq	-8(%rbp), %rdi
	callq	_ZNSt6vectorISt10unique_ptrI10SensorBaseSt14default_deleteIS1_EESaIS4_EED2Ev
	addq	$16, %rsp
	popq	%rbp
	.cfi_def_cfa %rsp, 8
	retq
.Lfunc_end26:
	.size	_ZN14SensorPipelineD2Ev, .Lfunc_end26-_ZN14SensorPipelineD2Ev
	.cfi_endproc
                                        # -- End function
	.section	.text._ZNSt10unique_ptrI11LidarSensorSt14default_deleteIS0_EED2Ev,"axG",@progbits,_ZNSt10unique_ptrI11LidarSensorSt14default_deleteIS0_EED2Ev,comdat
	.weak	_ZNSt10unique_ptrI11LidarSensorSt14default_deleteIS0_EED2Ev # -- Begin function _ZNSt10unique_ptrI11LidarSensorSt14default_deleteIS0_EED2Ev
	.p2align	4, 0x90
	.type	_ZNSt10unique_ptrI11LidarSensorSt14default_deleteIS0_EED2Ev,@function
_ZNSt10unique_ptrI11LidarSensorSt14default_deleteIS0_EED2Ev: # @_ZNSt10unique_ptrI11LidarSensorSt14default_deleteIS0_EED2Ev
.Lfunc_begin14:
	.cfi_startproc
	.cfi_personality 155, DW.ref.__gxx_personality_v0
	.cfi_lsda 27, .Lexception14
# %bb.0:
	pushq	%rbp
	.cfi_def_cfa_offset 16
	.cfi_offset %rbp, -16
	movq	%rsp, %rbp
	.cfi_def_cfa_register %rbp
	subq	$32, %rsp
	movq	%rdi, -8(%rbp)
	movq	-8(%rbp), %rdi
	movq	%rdi, -24(%rbp)                 # 8-byte Spill
	callq	_ZNSt15__uniq_ptr_implI11LidarSensorSt14default_deleteIS0_EE6_M_ptrEv
	movq	%rax, -16(%rbp)
	movq	-16(%rbp), %rax
	cmpq	$0, (%rax)
	je	.LBB27_3
# %bb.1:
	movq	-24(%rbp), %rdi                 # 8-byte Reload
	callq	_ZNSt10unique_ptrI11LidarSensorSt14default_deleteIS0_EE11get_deleterEv
	movq	%rax, -32(%rbp)                 # 8-byte Spill
	movq	-16(%rbp), %rdi
	callq	_ZSt4moveIRP11LidarSensorEONSt16remove_referenceIT_E4typeEOS4_
	movq	-32(%rbp), %rdi                 # 8-byte Reload
	movq	(%rax), %rsi
.Ltmp108:
	callq	_ZNKSt14default_deleteI11LidarSensorEclEPS0_
.Ltmp109:
	jmp	.LBB27_2
.LBB27_2:
	jmp	.LBB27_3
.LBB27_3:
	movq	-16(%rbp), %rax
	movq	$0, (%rax)
	addq	$32, %rsp
	popq	%rbp
	.cfi_def_cfa %rsp, 8
	retq
.LBB27_4:
	.cfi_def_cfa %rbp, 16
.Ltmp110:
	movq	%rax, %rdi
                                        # kill: def $eax killed $edx killed $rdx
	callq	__clang_call_terminate
.Lfunc_end27:
	.size	_ZNSt10unique_ptrI11LidarSensorSt14default_deleteIS0_EED2Ev, .Lfunc_end27-_ZNSt10unique_ptrI11LidarSensorSt14default_deleteIS0_EED2Ev
	.cfi_endproc
	.section	.gcc_except_table._ZNSt10unique_ptrI11LidarSensorSt14default_deleteIS0_EED2Ev,"aG",@progbits,_ZNSt10unique_ptrI11LidarSensorSt14default_deleteIS0_EED2Ev,comdat
	.p2align	2
GCC_except_table27:
.Lexception14:
	.byte	255                             # @LPStart Encoding = omit
	.byte	155                             # @TType Encoding = indirect pcrel sdata4
	.uleb128 .Lttbase7-.Lttbaseref7
.Lttbaseref7:
	.byte	1                               # Call site Encoding = uleb128
	.uleb128 .Lcst_end14-.Lcst_begin14
.Lcst_begin14:
	.uleb128 .Ltmp108-.Lfunc_begin14        # >> Call Site 1 <<
	.uleb128 .Ltmp109-.Ltmp108              #   Call between .Ltmp108 and .Ltmp109
	.uleb128 .Ltmp110-.Lfunc_begin14        #     jumps to .Ltmp110
	.byte	1                               #   On action: 1
.Lcst_end14:
	.byte	1                               # >> Action Record 1 <<
                                        #   Catch TypeInfo 1
	.byte	0                               #   No further actions
	.p2align	2
                                        # >> Catch TypeInfos <<
	.long	0                               # TypeInfo 1
.Lttbase7:
	.p2align	2
                                        # -- End function
	.section	.text._ZNSt10unique_ptrI12CameraSensorSt14default_deleteIS0_EED2Ev,"axG",@progbits,_ZNSt10unique_ptrI12CameraSensorSt14default_deleteIS0_EED2Ev,comdat
	.weak	_ZNSt10unique_ptrI12CameraSensorSt14default_deleteIS0_EED2Ev # -- Begin function _ZNSt10unique_ptrI12CameraSensorSt14default_deleteIS0_EED2Ev
	.p2align	4, 0x90
	.type	_ZNSt10unique_ptrI12CameraSensorSt14default_deleteIS0_EED2Ev,@function
_ZNSt10unique_ptrI12CameraSensorSt14default_deleteIS0_EED2Ev: # @_ZNSt10unique_ptrI12CameraSensorSt14default_deleteIS0_EED2Ev
.Lfunc_begin15:
	.cfi_startproc
	.cfi_personality 155, DW.ref.__gxx_personality_v0
	.cfi_lsda 27, .Lexception15
# %bb.0:
	pushq	%rbp
	.cfi_def_cfa_offset 16
	.cfi_offset %rbp, -16
	movq	%rsp, %rbp
	.cfi_def_cfa_register %rbp
	subq	$32, %rsp
	movq	%rdi, -8(%rbp)
	movq	-8(%rbp), %rdi
	movq	%rdi, -24(%rbp)                 # 8-byte Spill
	callq	_ZNSt15__uniq_ptr_implI12CameraSensorSt14default_deleteIS0_EE6_M_ptrEv
	movq	%rax, -16(%rbp)
	movq	-16(%rbp), %rax
	cmpq	$0, (%rax)
	je	.LBB28_3
# %bb.1:
	movq	-24(%rbp), %rdi                 # 8-byte Reload
	callq	_ZNSt10unique_ptrI12CameraSensorSt14default_deleteIS0_EE11get_deleterEv
	movq	%rax, -32(%rbp)                 # 8-byte Spill
	movq	-16(%rbp), %rdi
	callq	_ZSt4moveIRP12CameraSensorEONSt16remove_referenceIT_E4typeEOS4_
	movq	-32(%rbp), %rdi                 # 8-byte Reload
	movq	(%rax), %rsi
.Ltmp111:
	callq	_ZNKSt14default_deleteI12CameraSensorEclEPS0_
.Ltmp112:
	jmp	.LBB28_2
.LBB28_2:
	jmp	.LBB28_3
.LBB28_3:
	movq	-16(%rbp), %rax
	movq	$0, (%rax)
	addq	$32, %rsp
	popq	%rbp
	.cfi_def_cfa %rsp, 8
	retq
.LBB28_4:
	.cfi_def_cfa %rbp, 16
.Ltmp113:
	movq	%rax, %rdi
                                        # kill: def $eax killed $edx killed $rdx
	callq	__clang_call_terminate
.Lfunc_end28:
	.size	_ZNSt10unique_ptrI12CameraSensorSt14default_deleteIS0_EED2Ev, .Lfunc_end28-_ZNSt10unique_ptrI12CameraSensorSt14default_deleteIS0_EED2Ev
	.cfi_endproc
	.section	.gcc_except_table._ZNSt10unique_ptrI12CameraSensorSt14default_deleteIS0_EED2Ev,"aG",@progbits,_ZNSt10unique_ptrI12CameraSensorSt14default_deleteIS0_EED2Ev,comdat
	.p2align	2
GCC_except_table28:
.Lexception15:
	.byte	255                             # @LPStart Encoding = omit
	.byte	155                             # @TType Encoding = indirect pcrel sdata4
	.uleb128 .Lttbase8-.Lttbaseref8
.Lttbaseref8:
	.byte	1                               # Call site Encoding = uleb128
	.uleb128 .Lcst_end15-.Lcst_begin15
.Lcst_begin15:
	.uleb128 .Ltmp111-.Lfunc_begin15        # >> Call Site 1 <<
	.uleb128 .Ltmp112-.Ltmp111              #   Call between .Ltmp111 and .Ltmp112
	.uleb128 .Ltmp113-.Lfunc_begin15        #     jumps to .Ltmp113
	.byte	1                               #   On action: 1
.Lcst_end15:
	.byte	1                               # >> Action Record 1 <<
                                        #   Catch TypeInfo 1
	.byte	0                               #   No further actions
	.p2align	2
                                        # >> Catch TypeInfos <<
	.long	0                               # TypeInfo 1
.Lttbase8:
	.p2align	2
                                        # -- End function
	.section	.text._ZNSt10unique_ptrI11FilteredImuSt14default_deleteIS0_EED2Ev,"axG",@progbits,_ZNSt10unique_ptrI11FilteredImuSt14default_deleteIS0_EED2Ev,comdat
	.weak	_ZNSt10unique_ptrI11FilteredImuSt14default_deleteIS0_EED2Ev # -- Begin function _ZNSt10unique_ptrI11FilteredImuSt14default_deleteIS0_EED2Ev
	.p2align	4, 0x90
	.type	_ZNSt10unique_ptrI11FilteredImuSt14default_deleteIS0_EED2Ev,@function
_ZNSt10unique_ptrI11FilteredImuSt14default_deleteIS0_EED2Ev: # @_ZNSt10unique_ptrI11FilteredImuSt14default_deleteIS0_EED2Ev
.Lfunc_begin16:
	.cfi_startproc
	.cfi_personality 155, DW.ref.__gxx_personality_v0
	.cfi_lsda 27, .Lexception16
# %bb.0:
	pushq	%rbp
	.cfi_def_cfa_offset 16
	.cfi_offset %rbp, -16
	movq	%rsp, %rbp
	.cfi_def_cfa_register %rbp
	subq	$32, %rsp
	movq	%rdi, -8(%rbp)
	movq	-8(%rbp), %rdi
	movq	%rdi, -24(%rbp)                 # 8-byte Spill
	callq	_ZNSt15__uniq_ptr_implI11FilteredImuSt14default_deleteIS0_EE6_M_ptrEv
	movq	%rax, -16(%rbp)
	movq	-16(%rbp), %rax
	cmpq	$0, (%rax)
	je	.LBB29_3
# %bb.1:
	movq	-24(%rbp), %rdi                 # 8-byte Reload
	callq	_ZNSt10unique_ptrI11FilteredImuSt14default_deleteIS0_EE11get_deleterEv
	movq	%rax, -32(%rbp)                 # 8-byte Spill
	movq	-16(%rbp), %rdi
	callq	_ZSt4moveIRP11FilteredImuEONSt16remove_referenceIT_E4typeEOS4_
	movq	-32(%rbp), %rdi                 # 8-byte Reload
	movq	(%rax), %rsi
.Ltmp114:
	callq	_ZNKSt14default_deleteI11FilteredImuEclEPS0_
.Ltmp115:
	jmp	.LBB29_2
.LBB29_2:
	jmp	.LBB29_3
.LBB29_3:
	movq	-16(%rbp), %rax
	movq	$0, (%rax)
	addq	$32, %rsp
	popq	%rbp
	.cfi_def_cfa %rsp, 8
	retq
.LBB29_4:
	.cfi_def_cfa %rbp, 16
.Ltmp116:
	movq	%rax, %rdi
                                        # kill: def $eax killed $edx killed $rdx
	callq	__clang_call_terminate
.Lfunc_end29:
	.size	_ZNSt10unique_ptrI11FilteredImuSt14default_deleteIS0_EED2Ev, .Lfunc_end29-_ZNSt10unique_ptrI11FilteredImuSt14default_deleteIS0_EED2Ev
	.cfi_endproc
	.section	.gcc_except_table._ZNSt10unique_ptrI11FilteredImuSt14default_deleteIS0_EED2Ev,"aG",@progbits,_ZNSt10unique_ptrI11FilteredImuSt14default_deleteIS0_EED2Ev,comdat
	.p2align	2
GCC_except_table29:
.Lexception16:
	.byte	255                             # @LPStart Encoding = omit
	.byte	155                             # @TType Encoding = indirect pcrel sdata4
	.uleb128 .Lttbase9-.Lttbaseref9
.Lttbaseref9:
	.byte	1                               # Call site Encoding = uleb128
	.uleb128 .Lcst_end16-.Lcst_begin16
.Lcst_begin16:
	.uleb128 .Ltmp114-.Lfunc_begin16        # >> Call Site 1 <<
	.uleb128 .Ltmp115-.Ltmp114              #   Call between .Ltmp114 and .Ltmp115
	.uleb128 .Ltmp116-.Lfunc_begin16        #     jumps to .Ltmp116
	.byte	1                               #   On action: 1
.Lcst_end16:
	.byte	1                               # >> Action Record 1 <<
                                        #   Catch TypeInfo 1
	.byte	0                               #   No further actions
	.p2align	2
                                        # >> Catch TypeInfos <<
	.long	0                               # TypeInfo 1
.Lttbase9:
	.p2align	2
                                        # -- End function
	.section	.text._ZNSt10unique_ptrI9ImuSensorSt14default_deleteIS0_EED2Ev,"axG",@progbits,_ZNSt10unique_ptrI9ImuSensorSt14default_deleteIS0_EED2Ev,comdat
	.weak	_ZNSt10unique_ptrI9ImuSensorSt14default_deleteIS0_EED2Ev # -- Begin function _ZNSt10unique_ptrI9ImuSensorSt14default_deleteIS0_EED2Ev
	.p2align	4, 0x90
	.type	_ZNSt10unique_ptrI9ImuSensorSt14default_deleteIS0_EED2Ev,@function
_ZNSt10unique_ptrI9ImuSensorSt14default_deleteIS0_EED2Ev: # @_ZNSt10unique_ptrI9ImuSensorSt14default_deleteIS0_EED2Ev
.Lfunc_begin17:
	.cfi_startproc
	.cfi_personality 155, DW.ref.__gxx_personality_v0
	.cfi_lsda 27, .Lexception17
# %bb.0:
	pushq	%rbp
	.cfi_def_cfa_offset 16
	.cfi_offset %rbp, -16
	movq	%rsp, %rbp
	.cfi_def_cfa_register %rbp
	subq	$32, %rsp
	movq	%rdi, -8(%rbp)
	movq	-8(%rbp), %rdi
	movq	%rdi, -24(%rbp)                 # 8-byte Spill
	callq	_ZNSt15__uniq_ptr_implI9ImuSensorSt14default_deleteIS0_EE6_M_ptrEv
	movq	%rax, -16(%rbp)
	movq	-16(%rbp), %rax
	cmpq	$0, (%rax)
	je	.LBB30_3
# %bb.1:
	movq	-24(%rbp), %rdi                 # 8-byte Reload
	callq	_ZNSt10unique_ptrI9ImuSensorSt14default_deleteIS0_EE11get_deleterEv
	movq	%rax, -32(%rbp)                 # 8-byte Spill
	movq	-16(%rbp), %rdi
	callq	_ZSt4moveIRP9ImuSensorEONSt16remove_referenceIT_E4typeEOS4_
	movq	-32(%rbp), %rdi                 # 8-byte Reload
	movq	(%rax), %rsi
.Ltmp117:
	callq	_ZNKSt14default_deleteI9ImuSensorEclEPS0_
.Ltmp118:
	jmp	.LBB30_2
.LBB30_2:
	jmp	.LBB30_3
.LBB30_3:
	movq	-16(%rbp), %rax
	movq	$0, (%rax)
	addq	$32, %rsp
	popq	%rbp
	.cfi_def_cfa %rsp, 8
	retq
.LBB30_4:
	.cfi_def_cfa %rbp, 16
.Ltmp119:
	movq	%rax, %rdi
                                        # kill: def $eax killed $edx killed $rdx
	callq	__clang_call_terminate
.Lfunc_end30:
	.size	_ZNSt10unique_ptrI9ImuSensorSt14default_deleteIS0_EED2Ev, .Lfunc_end30-_ZNSt10unique_ptrI9ImuSensorSt14default_deleteIS0_EED2Ev
	.cfi_endproc
	.section	.gcc_except_table._ZNSt10unique_ptrI9ImuSensorSt14default_deleteIS0_EED2Ev,"aG",@progbits,_ZNSt10unique_ptrI9ImuSensorSt14default_deleteIS0_EED2Ev,comdat
	.p2align	2
GCC_except_table30:
.Lexception17:
	.byte	255                             # @LPStart Encoding = omit
	.byte	155                             # @TType Encoding = indirect pcrel sdata4
	.uleb128 .Lttbase10-.Lttbaseref10
.Lttbaseref10:
	.byte	1                               # Call site Encoding = uleb128
	.uleb128 .Lcst_end17-.Lcst_begin17
.Lcst_begin17:
	.uleb128 .Ltmp117-.Lfunc_begin17        # >> Call Site 1 <<
	.uleb128 .Ltmp118-.Ltmp117              #   Call between .Ltmp117 and .Ltmp118
	.uleb128 .Ltmp119-.Lfunc_begin17        #     jumps to .Ltmp119
	.byte	1                               #   On action: 1
.Lcst_end17:
	.byte	1                               # >> Action Record 1 <<
                                        #   Catch TypeInfo 1
	.byte	0                               #   No further actions
	.p2align	2
                                        # >> Catch TypeInfos <<
	.long	0                               # TypeInfo 1
.Lttbase10:
	.p2align	2
                                        # -- End function
	.section	.text._ZN14SensorObserverC2Ev,"axG",@progbits,_ZN14SensorObserverC2Ev,comdat
	.weak	_ZN14SensorObserverC2Ev         # -- Begin function _ZN14SensorObserverC2Ev
	.p2align	4, 0x90
	.type	_ZN14SensorObserverC2Ev,@function
_ZN14SensorObserverC2Ev:                # @_ZN14SensorObserverC2Ev
	.cfi_startproc
# %bb.0:
	pushq	%rbp
	.cfi_def_cfa_offset 16
	.cfi_offset %rbp, -16
	movq	%rsp, %rbp
	.cfi_def_cfa_register %rbp
	movq	%rdi, -8(%rbp)
	movq	-8(%rbp), %rax
	leaq	_ZTV14SensorObserver(%rip), %rcx
	addq	$16, %rcx
	movq	%rcx, (%rax)
	popq	%rbp
	.cfi_def_cfa %rsp, 8
	retq
.Lfunc_end31:
	.size	_ZN14SensorObserverC2Ev, .Lfunc_end31-_ZN14SensorObserverC2Ev
	.cfi_endproc
                                        # -- End function
	.section	.text._ZNSt6vectorISt10unique_ptrI10SensorBaseSt14default_deleteIS1_EESaIS4_EEC2Ev,"axG",@progbits,_ZNSt6vectorISt10unique_ptrI10SensorBaseSt14default_deleteIS1_EESaIS4_EEC2Ev,comdat
	.weak	_ZNSt6vectorISt10unique_ptrI10SensorBaseSt14default_deleteIS1_EESaIS4_EEC2Ev # -- Begin function _ZNSt6vectorISt10unique_ptrI10SensorBaseSt14default_deleteIS1_EESaIS4_EEC2Ev
	.p2align	4, 0x90
	.type	_ZNSt6vectorISt10unique_ptrI10SensorBaseSt14default_deleteIS1_EESaIS4_EEC2Ev,@function
_ZNSt6vectorISt10unique_ptrI10SensorBaseSt14default_deleteIS1_EESaIS4_EEC2Ev: # @_ZNSt6vectorISt10unique_ptrI10SensorBaseSt14default_deleteIS1_EESaIS4_EEC2Ev
	.cfi_startproc
# %bb.0:
	pushq	%rbp
	.cfi_def_cfa_offset 16
	.cfi_offset %rbp, -16
	movq	%rsp, %rbp
	.cfi_def_cfa_register %rbp
	subq	$16, %rsp
	movq	%rdi, -8(%rbp)
	movq	-8(%rbp), %rdi
	callq	_ZNSt12_Vector_baseISt10unique_ptrI10SensorBaseSt14default_deleteIS1_EESaIS4_EEC2Ev
	addq	$16, %rsp
	popq	%rbp
	.cfi_def_cfa %rsp, 8
	retq
.Lfunc_end32:
	.size	_ZNSt6vectorISt10unique_ptrI10SensorBaseSt14default_deleteIS1_EESaIS4_EEC2Ev, .Lfunc_end32-_ZNSt6vectorISt10unique_ptrI10SensorBaseSt14default_deleteIS1_EESaIS4_EEC2Ev
	.cfi_endproc
                                        # -- End function
	.section	.text._ZNSt12_Vector_baseISt10unique_ptrI10SensorBaseSt14default_deleteIS1_EESaIS4_EEC2Ev,"axG",@progbits,_ZNSt12_Vector_baseISt10unique_ptrI10SensorBaseSt14default_deleteIS1_EESaIS4_EEC2Ev,comdat
	.weak	_ZNSt12_Vector_baseISt10unique_ptrI10SensorBaseSt14default_deleteIS1_EESaIS4_EEC2Ev # -- Begin function _ZNSt12_Vector_baseISt10unique_ptrI10SensorBaseSt14default_deleteIS1_EESaIS4_EEC2Ev
	.p2align	4, 0x90
	.type	_ZNSt12_Vector_baseISt10unique_ptrI10SensorBaseSt14default_deleteIS1_EESaIS4_EEC2Ev,@function
_ZNSt12_Vector_baseISt10unique_ptrI10SensorBaseSt14default_deleteIS1_EESaIS4_EEC2Ev: # @_ZNSt12_Vector_baseISt10unique_ptrI10SensorBaseSt14default_deleteIS1_EESaIS4_EEC2Ev
	.cfi_startproc
# %bb.0:
	pushq	%rbp
	.cfi_def_cfa_offset 16
	.cfi_offset %rbp, -16
	movq	%rsp, %rbp
	.cfi_def_cfa_register %rbp
	subq	$16, %rsp
	movq	%rdi, -8(%rbp)
	movq	-8(%rbp), %rdi
	callq	_ZNSt12_Vector_baseISt10unique_ptrI10SensorBaseSt14default_deleteIS1_EESaIS4_EE12_Vector_implC2Ev
	addq	$16, %rsp
	popq	%rbp
	.cfi_def_cfa %rsp, 8
	retq
.Lfunc_end33:
	.size	_ZNSt12_Vector_baseISt10unique_ptrI10SensorBaseSt14default_deleteIS1_EESaIS4_EEC2Ev, .Lfunc_end33-_ZNSt12_Vector_baseISt10unique_ptrI10SensorBaseSt14default_deleteIS1_EESaIS4_EEC2Ev
	.cfi_endproc
                                        # -- End function
	.section	.text._ZNSt12_Vector_baseISt10unique_ptrI10SensorBaseSt14default_deleteIS1_EESaIS4_EE12_Vector_implC2Ev,"axG",@progbits,_ZNSt12_Vector_baseISt10unique_ptrI10SensorBaseSt14default_deleteIS1_EESaIS4_EE12_Vector_implC2Ev,comdat
	.weak	_ZNSt12_Vector_baseISt10unique_ptrI10SensorBaseSt14default_deleteIS1_EESaIS4_EE12_Vector_implC2Ev # -- Begin function _ZNSt12_Vector_baseISt10unique_ptrI10SensorBaseSt14default_deleteIS1_EESaIS4_EE12_Vector_implC2Ev
	.p2align	4, 0x90
	.type	_ZNSt12_Vector_baseISt10unique_ptrI10SensorBaseSt14default_deleteIS1_EESaIS4_EE12_Vector_implC2Ev,@function
_ZNSt12_Vector_baseISt10unique_ptrI10SensorBaseSt14default_deleteIS1_EESaIS4_EE12_Vector_implC2Ev: # @_ZNSt12_Vector_baseISt10unique_ptrI10SensorBaseSt14default_deleteIS1_EESaIS4_EE12_Vector_implC2Ev
	.cfi_startproc
# %bb.0:
	pushq	%rbp
	.cfi_def_cfa_offset 16
	.cfi_offset %rbp, -16
	movq	%rsp, %rbp
	.cfi_def_cfa_register %rbp
	subq	$32, %rsp
	movq	%rdi, -24(%rbp)
	movq	-24(%rbp), %rdi
	movq	%rdi, %rax
	movq	%rax, -16(%rbp)
	movq	-16(%rbp), %rax
	movq	%rax, -8(%rbp)
	callq	_ZNSt12_Vector_baseISt10unique_ptrI10SensorBaseSt14default_deleteIS1_EESaIS4_EE17_Vector_impl_dataC2Ev
	addq	$32, %rsp
	popq	%rbp
	.cfi_def_cfa %rsp, 8
	retq
.Lfunc_end34:
	.size	_ZNSt12_Vector_baseISt10unique_ptrI10SensorBaseSt14default_deleteIS1_EESaIS4_EE12_Vector_implC2Ev, .Lfunc_end34-_ZNSt12_Vector_baseISt10unique_ptrI10SensorBaseSt14default_deleteIS1_EESaIS4_EE12_Vector_implC2Ev
	.cfi_endproc
                                        # -- End function
	.section	.text._ZNSt6vectorISt10unique_ptrI10SensorBaseSt14default_deleteIS1_EESaIS4_EE9push_backEOS4_,"axG",@progbits,_ZNSt6vectorISt10unique_ptrI10SensorBaseSt14default_deleteIS1_EESaIS4_EE9push_backEOS4_,comdat
	.weak	_ZNSt6vectorISt10unique_ptrI10SensorBaseSt14default_deleteIS1_EESaIS4_EE9push_backEOS4_ # -- Begin function _ZNSt6vectorISt10unique_ptrI10SensorBaseSt14default_deleteIS1_EESaIS4_EE9push_backEOS4_
	.p2align	4, 0x90
	.type	_ZNSt6vectorISt10unique_ptrI10SensorBaseSt14default_deleteIS1_EESaIS4_EE9push_backEOS4_,@function
_ZNSt6vectorISt10unique_ptrI10SensorBaseSt14default_deleteIS1_EESaIS4_EE9push_backEOS4_: # @_ZNSt6vectorISt10unique_ptrI10SensorBaseSt14default_deleteIS1_EESaIS4_EE9push_backEOS4_
	.cfi_startproc
# %bb.0:
	pushq	%rbp
	.cfi_def_cfa_offset 16
	.cfi_offset %rbp, -16
	movq	%rsp, %rbp
	.cfi_def_cfa_register %rbp
	subq	$32, %rsp
	movq	%rdi, -8(%rbp)
	movq	%rsi, -16(%rbp)
	movq	-8(%rbp), %rax
	movq	%rax, -24(%rbp)                 # 8-byte Spill
	movq	-16(%rbp), %rdi
	callq	_ZSt4moveIRSt10unique_ptrI10SensorBaseSt14default_deleteIS1_EEEONSt16remove_referenceIT_E4typeEOS7_
	movq	-24(%rbp), %rdi                 # 8-byte Reload
	movq	%rax, %rsi
	callq	_ZNSt6vectorISt10unique_ptrI10SensorBaseSt14default_deleteIS1_EESaIS4_EE12emplace_backIJS4_EEERS4_DpOT_
	addq	$32, %rsp
	popq	%rbp
	.cfi_def_cfa %rsp, 8
	retq
.Lfunc_end35:
	.size	_ZNSt6vectorISt10unique_ptrI10SensorBaseSt14default_deleteIS1_EESaIS4_EE9push_backEOS4_, .Lfunc_end35-_ZNSt6vectorISt10unique_ptrI10SensorBaseSt14default_deleteIS1_EESaIS4_EE9push_backEOS4_
	.cfi_endproc
                                        # -- End function
	.section	.text._ZSt4moveIRSt10unique_ptrI10SensorBaseSt14default_deleteIS1_EEEONSt16remove_referenceIT_E4typeEOS7_,"axG",@progbits,_ZSt4moveIRSt10unique_ptrI10SensorBaseSt14default_deleteIS1_EEEONSt16remove_referenceIT_E4typeEOS7_,comdat
	.weak	_ZSt4moveIRSt10unique_ptrI10SensorBaseSt14default_deleteIS1_EEEONSt16remove_referenceIT_E4typeEOS7_ # -- Begin function _ZSt4moveIRSt10unique_ptrI10SensorBaseSt14default_deleteIS1_EEEONSt16remove_referenceIT_E4typeEOS7_
	.p2align	4, 0x90
	.type	_ZSt4moveIRSt10unique_ptrI10SensorBaseSt14default_deleteIS1_EEEONSt16remove_referenceIT_E4typeEOS7_,@function
_ZSt4moveIRSt10unique_ptrI10SensorBaseSt14default_deleteIS1_EEEONSt16remove_referenceIT_E4typeEOS7_: # @_ZSt4moveIRSt10unique_ptrI10SensorBaseSt14default_deleteIS1_EEEONSt16remove_referenceIT_E4typeEOS7_
	.cfi_startproc
# %bb.0:
	pushq	%rbp
	.cfi_def_cfa_offset 16
	.cfi_offset %rbp, -16
	movq	%rsp, %rbp
	.cfi_def_cfa_register %rbp
	movq	%rdi, -8(%rbp)
	movq	-8(%rbp), %rax
	popq	%rbp
	.cfi_def_cfa %rsp, 8
	retq
.Lfunc_end36:
	.size	_ZSt4moveIRSt10unique_ptrI10SensorBaseSt14default_deleteIS1_EEEONSt16remove_referenceIT_E4typeEOS7_, .Lfunc_end36-_ZSt4moveIRSt10unique_ptrI10SensorBaseSt14default_deleteIS1_EEEONSt16remove_referenceIT_E4typeEOS7_
	.cfi_endproc
                                        # -- End function
	.section	.text._ZNSt6vectorISt10unique_ptrI10SensorBaseSt14default_deleteIS1_EESaIS4_EE12emplace_backIJS4_EEERS4_DpOT_,"axG",@progbits,_ZNSt6vectorISt10unique_ptrI10SensorBaseSt14default_deleteIS1_EESaIS4_EE12emplace_backIJS4_EEERS4_DpOT_,comdat
	.weak	_ZNSt6vectorISt10unique_ptrI10SensorBaseSt14default_deleteIS1_EESaIS4_EE12emplace_backIJS4_EEERS4_DpOT_ # -- Begin function _ZNSt6vectorISt10unique_ptrI10SensorBaseSt14default_deleteIS1_EESaIS4_EE12emplace_backIJS4_EEERS4_DpOT_
	.p2align	4, 0x90
	.type	_ZNSt6vectorISt10unique_ptrI10SensorBaseSt14default_deleteIS1_EESaIS4_EE12emplace_backIJS4_EEERS4_DpOT_,@function
_ZNSt6vectorISt10unique_ptrI10SensorBaseSt14default_deleteIS1_EESaIS4_EE12emplace_backIJS4_EEERS4_DpOT_: # @_ZNSt6vectorISt10unique_ptrI10SensorBaseSt14default_deleteIS1_EESaIS4_EE12emplace_backIJS4_EEERS4_DpOT_
	.cfi_startproc
# %bb.0:
	pushq	%rbp
	.cfi_def_cfa_offset 16
	.cfi_offset %rbp, -16
	movq	%rsp, %rbp
	.cfi_def_cfa_register %rbp
	subq	$80, %rsp
	movq	%rdi, -32(%rbp)
	movq	%rsi, -40(%rbp)
	movq	-32(%rbp), %rcx
	movq	%rcx, -56(%rbp)                 # 8-byte Spill
	movq	8(%rcx), %rax
	cmpq	16(%rcx), %rax
	je	.LBB37_2
# %bb.1:
	movq	-56(%rbp), %rax                 # 8-byte Reload
	movq	%rax, %rcx
	movq	%rcx, -80(%rbp)                 # 8-byte Spill
	movq	8(%rax), %rax
	movq	%rax, -72(%rbp)                 # 8-byte Spill
	movq	-40(%rbp), %rdi
	callq	_ZSt7forwardISt10unique_ptrI10SensorBaseSt14default_deleteIS1_EEEOT_RNSt16remove_referenceIS5_E4typeE
	movq	-80(%rbp), %rdx                 # 8-byte Reload
	movq	-72(%rbp), %rcx                 # 8-byte Reload
	movq	%rdx, -8(%rbp)
	movq	%rcx, -16(%rbp)
	movq	%rax, -24(%rbp)
	movq	-16(%rbp), %rax
	movq	%rax, -64(%rbp)                 # 8-byte Spill
	movq	-24(%rbp), %rdi
	callq	_ZSt7forwardISt10unique_ptrI10SensorBaseSt14default_deleteIS1_EEEOT_RNSt16remove_referenceIS5_E4typeE
	movq	-64(%rbp), %rdi                 # 8-byte Reload
	movq	%rax, %rsi
	callq	_ZSt12construct_atISt10unique_ptrI10SensorBaseSt14default_deleteIS1_EEJS4_EEDTgsnwcvPvLi0E_T_pispclsr3stdE7declvalIT0_EEEEPS6_DpOS7_
                                        # kill: def $rcx killed $rax
	movq	-56(%rbp), %rax                 # 8-byte Reload
	movq	8(%rax), %rcx
	addq	$8, %rcx
	movq	%rcx, 8(%rax)
	jmp	.LBB37_3
.LBB37_2:
	movq	-56(%rbp), %rdi                 # 8-byte Reload
	callq	_ZNSt6vectorISt10unique_ptrI10SensorBaseSt14default_deleteIS1_EESaIS4_EE3endEv
	movq	%rax, -48(%rbp)
	movq	-40(%rbp), %rdi
	callq	_ZSt7forwardISt10unique_ptrI10SensorBaseSt14default_deleteIS1_EEEOT_RNSt16remove_referenceIS5_E4typeE
	movq	-56(%rbp), %rdi                 # 8-byte Reload
	movq	%rax, %rdx
	movq	-48(%rbp), %rsi
	callq	_ZNSt6vectorISt10unique_ptrI10SensorBaseSt14default_deleteIS1_EESaIS4_EE17_M_realloc_insertIJS4_EEEvN9__gnu_cxx17__normal_iteratorIPS4_S6_EEDpOT_
.LBB37_3:
	movq	-56(%rbp), %rdi                 # 8-byte Reload
	callq	_ZNSt6vectorISt10unique_ptrI10SensorBaseSt14default_deleteIS1_EESaIS4_EE4backEv
	addq	$80, %rsp
	popq	%rbp
	.cfi_def_cfa %rsp, 8
	retq
.Lfunc_end37:
	.size	_ZNSt6vectorISt10unique_ptrI10SensorBaseSt14default_deleteIS1_EESaIS4_EE12emplace_backIJS4_EEERS4_DpOT_, .Lfunc_end37-_ZNSt6vectorISt10unique_ptrI10SensorBaseSt14default_deleteIS1_EESaIS4_EE12emplace_backIJS4_EEERS4_DpOT_
	.cfi_endproc
                                        # -- End function
	.section	.text._ZSt7forwardISt10unique_ptrI10SensorBaseSt14default_deleteIS1_EEEOT_RNSt16remove_referenceIS5_E4typeE,"axG",@progbits,_ZSt7forwardISt10unique_ptrI10SensorBaseSt14default_deleteIS1_EEEOT_RNSt16remove_referenceIS5_E4typeE,comdat
	.weak	_ZSt7forwardISt10unique_ptrI10SensorBaseSt14default_deleteIS1_EEEOT_RNSt16remove_referenceIS5_E4typeE # -- Begin function _ZSt7forwardISt10unique_ptrI10SensorBaseSt14default_deleteIS1_EEEOT_RNSt16remove_referenceIS5_E4typeE
	.p2align	4, 0x90
	.type	_ZSt7forwardISt10unique_ptrI10SensorBaseSt14default_deleteIS1_EEEOT_RNSt16remove_referenceIS5_E4typeE,@function
_ZSt7forwardISt10unique_ptrI10SensorBaseSt14default_deleteIS1_EEEOT_RNSt16remove_referenceIS5_E4typeE: # @_ZSt7forwardISt10unique_ptrI10SensorBaseSt14default_deleteIS1_EEEOT_RNSt16remove_referenceIS5_E4typeE
	.cfi_startproc
# %bb.0:
	pushq	%rbp
	.cfi_def_cfa_offset 16
	.cfi_offset %rbp, -16
	movq	%rsp, %rbp
	.cfi_def_cfa_register %rbp
	movq	%rdi, -8(%rbp)
	movq	-8(%rbp), %rax
	popq	%rbp
	.cfi_def_cfa %rsp, 8
	retq
.Lfunc_end38:
	.size	_ZSt7forwardISt10unique_ptrI10SensorBaseSt14default_deleteIS1_EEEOT_RNSt16remove_referenceIS5_E4typeE, .Lfunc_end38-_ZSt7forwardISt10unique_ptrI10SensorBaseSt14default_deleteIS1_EEEOT_RNSt16remove_referenceIS5_E4typeE
	.cfi_endproc
                                        # -- End function
	.section	.text._ZNSt6vectorISt10unique_ptrI10SensorBaseSt14default_deleteIS1_EESaIS4_EE17_M_realloc_insertIJS4_EEEvN9__gnu_cxx17__normal_iteratorIPS4_S6_EEDpOT_,"axG",@progbits,_ZNSt6vectorISt10unique_ptrI10SensorBaseSt14default_deleteIS1_EESaIS4_EE17_M_realloc_insertIJS4_EEEvN9__gnu_cxx17__normal_iteratorIPS4_S6_EEDpOT_,comdat
	.weak	_ZNSt6vectorISt10unique_ptrI10SensorBaseSt14default_deleteIS1_EESaIS4_EE17_M_realloc_insertIJS4_EEEvN9__gnu_cxx17__normal_iteratorIPS4_S6_EEDpOT_ # -- Begin function _ZNSt6vectorISt10unique_ptrI10SensorBaseSt14default_deleteIS1_EESaIS4_EE17_M_realloc_insertIJS4_EEEvN9__gnu_cxx17__normal_iteratorIPS4_S6_EEDpOT_
	.p2align	4, 0x90
	.type	_ZNSt6vectorISt10unique_ptrI10SensorBaseSt14default_deleteIS1_EESaIS4_EE17_M_realloc_insertIJS4_EEEvN9__gnu_cxx17__normal_iteratorIPS4_S6_EEDpOT_,@function
_ZNSt6vectorISt10unique_ptrI10SensorBaseSt14default_deleteIS1_EESaIS4_EE17_M_realloc_insertIJS4_EEEvN9__gnu_cxx17__normal_iteratorIPS4_S6_EEDpOT_: # @_ZNSt6vectorISt10unique_ptrI10SensorBaseSt14default_deleteIS1_EESaIS4_EE17_M_realloc_insertIJS4_EEEvN9__gnu_cxx17__normal_iteratorIPS4_S6_EEDpOT_
	.cfi_startproc
# %bb.0:
	pushq	%rbp
	.cfi_def_cfa_offset 16
	.cfi_offset %rbp, -16
	movq	%rsp, %rbp
	.cfi_def_cfa_register %rbp
	subq	$192, %rsp
	movq	%rsi, -32(%rbp)
	movq	%rdi, -40(%rbp)
	movq	%rdx, -48(%rbp)
	movq	-40(%rbp), %rdi
	movq	%rdi, -112(%rbp)                # 8-byte Spill
	movl	$1, %esi
	leaq	.L.str.8(%rip), %rdx
	callq	_ZNKSt6vectorISt10unique_ptrI10SensorBaseSt14default_deleteIS1_EESaIS4_EE12_M_check_lenEmPKc
	movq	-112(%rbp), %rdi                # 8-byte Reload
	movq	%rax, -56(%rbp)
	movq	(%rdi), %rax
	movq	%rax, -64(%rbp)
	movq	8(%rdi), %rax
	movq	%rax, -72(%rbp)
	callq	_ZNSt6vectorISt10unique_ptrI10SensorBaseSt14default_deleteIS1_EESaIS4_EE5beginEv
	movq	%rax, -88(%rbp)
	leaq	-32(%rbp), %rdi
	leaq	-88(%rbp), %rsi
	callq	_ZN9__gnu_cxxmiIPSt10unique_ptrI10SensorBaseSt14default_deleteIS2_EESt6vectorIS5_SaIS5_EEEENS_17__normal_iteratorIT_T0_E15difference_typeERKSD_SG_
	movq	-112(%rbp), %rdi                # 8-byte Reload
	movq	%rax, -80(%rbp)
	movq	-56(%rbp), %rsi
	callq	_ZNSt12_Vector_baseISt10unique_ptrI10SensorBaseSt14default_deleteIS1_EESaIS4_EE11_M_allocateEm
	movq	%rax, %rcx
	movq	-112(%rbp), %rax                # 8-byte Reload
	movq	%rcx, -96(%rbp)
	movq	-96(%rbp), %rcx
	movq	%rcx, -104(%rbp)
	movq	%rax, -184(%rbp)                # 8-byte Spill
	movq	-96(%rbp), %rax
	movq	-80(%rbp), %rcx
	shlq	$3, %rcx
	addq	%rcx, %rax
	movq	%rax, -176(%rbp)                # 8-byte Spill
	movq	-48(%rbp), %rdi
	callq	_ZSt7forwardISt10unique_ptrI10SensorBaseSt14default_deleteIS1_EEEOT_RNSt16remove_referenceIS5_E4typeE
	movq	-184(%rbp), %rdx                # 8-byte Reload
	movq	-176(%rbp), %rcx                # 8-byte Reload
	movq	%rdx, -8(%rbp)
	movq	%rcx, -16(%rbp)
	movq	%rax, -24(%rbp)
	movq	-16(%rbp), %rax
	movq	%rax, -168(%rbp)                # 8-byte Spill
	movq	-24(%rbp), %rdi
	callq	_ZSt7forwardISt10unique_ptrI10SensorBaseSt14default_deleteIS1_EEEOT_RNSt16remove_referenceIS5_E4typeE
	movq	-168(%rbp), %rdi                # 8-byte Reload
	movq	%rax, %rsi
	callq	_ZSt12construct_atISt10unique_ptrI10SensorBaseSt14default_deleteIS1_EEJS4_EEDTgsnwcvPvLi0E_T_pispclsr3stdE7declvalIT0_EEEEPS6_DpOS7_
	movq	$0, -104(%rbp)
	movq	-64(%rbp), %rax
	movq	%rax, -160(%rbp)                # 8-byte Spill
	leaq	-32(%rbp), %rdi
	callq	_ZNK9__gnu_cxx17__normal_iteratorIPSt10unique_ptrI10SensorBaseSt14default_deleteIS2_EESt6vectorIS5_SaIS5_EEE4baseEv
	movq	-112(%rbp), %rdi                # 8-byte Reload
	movq	(%rax), %rax
	movq	%rax, -152(%rbp)                # 8-byte Spill
	movq	-96(%rbp), %rax
	movq	%rax, -144(%rbp)                # 8-byte Spill
	callq	_ZNSt12_Vector_baseISt10unique_ptrI10SensorBaseSt14default_deleteIS1_EESaIS4_EE19_M_get_Tp_allocatorEv
	movq	-160(%rbp), %rdi                # 8-byte Reload
	movq	-152(%rbp), %rsi                # 8-byte Reload
	movq	-144(%rbp), %rdx                # 8-byte Reload
	movq	%rax, %rcx
	callq	_ZNSt6vectorISt10unique_ptrI10SensorBaseSt14default_deleteIS1_EESaIS4_EE11_S_relocateEPS4_S7_S7_RS5_
	movq	%rax, -104(%rbp)
	movq	-104(%rbp), %rax
	addq	$8, %rax
	movq	%rax, -104(%rbp)
	leaq	-32(%rbp), %rdi
	callq	_ZNK9__gnu_cxx17__normal_iteratorIPSt10unique_ptrI10SensorBaseSt14default_deleteIS2_EESt6vectorIS5_SaIS5_EEE4baseEv
	movq	-112(%rbp), %rdi                # 8-byte Reload
	movq	(%rax), %rax
	movq	%rax, -136(%rbp)                # 8-byte Spill
	movq	-72(%rbp), %rax
	movq	%rax, -128(%rbp)                # 8-byte Spill
	movq	-104(%rbp), %rax
	movq	%rax, -120(%rbp)                # 8-byte Spill
	callq	_ZNSt12_Vector_baseISt10unique_ptrI10SensorBaseSt14default_deleteIS1_EESaIS4_EE19_M_get_Tp_allocatorEv
	movq	-136(%rbp), %rdi                # 8-byte Reload
	movq	-128(%rbp), %rsi                # 8-byte Reload
	movq	-120(%rbp), %rdx                # 8-byte Reload
	movq	%rax, %rcx
	callq	_ZNSt6vectorISt10unique_ptrI10SensorBaseSt14default_deleteIS1_EESaIS4_EE11_S_relocateEPS4_S7_S7_RS5_
	movq	%rax, %rcx
	movq	-112(%rbp), %rax                # 8-byte Reload
	movq	%rcx, -104(%rbp)
	movq	%rax, %rdi
	movq	-64(%rbp), %rsi
	movq	16(%rax), %rdx
	movq	-64(%rbp), %rax
	subq	%rax, %rdx
	sarq	$3, %rdx
	callq	_ZNSt12_Vector_baseISt10unique_ptrI10SensorBaseSt14default_deleteIS1_EESaIS4_EE13_M_deallocateEPS4_m
	movq	-112(%rbp), %rax                # 8-byte Reload
	movq	-96(%rbp), %rcx
	movq	%rcx, (%rax)
	movq	-104(%rbp), %rcx
	movq	%rcx, 8(%rax)
	movq	-96(%rbp), %rcx
	movq	-56(%rbp), %rdx
	shlq	$3, %rdx
	addq	%rdx, %rcx
	movq	%rcx, 16(%rax)
	addq	$192, %rsp
	popq	%rbp
	.cfi_def_cfa %rsp, 8
	retq
.Lfunc_end39:
	.size	_ZNSt6vectorISt10unique_ptrI10SensorBaseSt14default_deleteIS1_EESaIS4_EE17_M_realloc_insertIJS4_EEEvN9__gnu_cxx17__normal_iteratorIPS4_S6_EEDpOT_, .Lfunc_end39-_ZNSt6vectorISt10unique_ptrI10SensorBaseSt14default_deleteIS1_EESaIS4_EE17_M_realloc_insertIJS4_EEEvN9__gnu_cxx17__normal_iteratorIPS4_S6_EEDpOT_
	.cfi_endproc
                                        # -- End function
	.section	.text._ZNSt6vectorISt10unique_ptrI10SensorBaseSt14default_deleteIS1_EESaIS4_EE3endEv,"axG",@progbits,_ZNSt6vectorISt10unique_ptrI10SensorBaseSt14default_deleteIS1_EESaIS4_EE3endEv,comdat
	.weak	_ZNSt6vectorISt10unique_ptrI10SensorBaseSt14default_deleteIS1_EESaIS4_EE3endEv # -- Begin function _ZNSt6vectorISt10unique_ptrI10SensorBaseSt14default_deleteIS1_EESaIS4_EE3endEv
	.p2align	4, 0x90
	.type	_ZNSt6vectorISt10unique_ptrI10SensorBaseSt14default_deleteIS1_EESaIS4_EE3endEv,@function
_ZNSt6vectorISt10unique_ptrI10SensorBaseSt14default_deleteIS1_EESaIS4_EE3endEv: # @_ZNSt6vectorISt10unique_ptrI10SensorBaseSt14default_deleteIS1_EESaIS4_EE3endEv
	.cfi_startproc
# %bb.0:
	pushq	%rbp
	.cfi_def_cfa_offset 16
	.cfi_offset %rbp, -16
	movq	%rsp, %rbp
	.cfi_def_cfa_register %rbp
	subq	$16, %rsp
	movq	%rdi, -16(%rbp)
	movq	-16(%rbp), %rsi
	addq	$8, %rsi
	leaq	-8(%rbp), %rdi
	callq	_ZN9__gnu_cxx17__normal_iteratorIPSt10unique_ptrI10SensorBaseSt14default_deleteIS2_EESt6vectorIS5_SaIS5_EEEC2ERKS6_
	movq	-8(%rbp), %rax
	addq	$16, %rsp
	popq	%rbp
	.cfi_def_cfa %rsp, 8
	retq
.Lfunc_end40:
	.size	_ZNSt6vectorISt10unique_ptrI10SensorBaseSt14default_deleteIS1_EESaIS4_EE3endEv, .Lfunc_end40-_ZNSt6vectorISt10unique_ptrI10SensorBaseSt14default_deleteIS1_EESaIS4_EE3endEv
	.cfi_endproc
                                        # -- End function
	.section	.text._ZNSt6vectorISt10unique_ptrI10SensorBaseSt14default_deleteIS1_EESaIS4_EE4backEv,"axG",@progbits,_ZNSt6vectorISt10unique_ptrI10SensorBaseSt14default_deleteIS1_EESaIS4_EE4backEv,comdat
	.weak	_ZNSt6vectorISt10unique_ptrI10SensorBaseSt14default_deleteIS1_EESaIS4_EE4backEv # -- Begin function _ZNSt6vectorISt10unique_ptrI10SensorBaseSt14default_deleteIS1_EESaIS4_EE4backEv
	.p2align	4, 0x90
	.type	_ZNSt6vectorISt10unique_ptrI10SensorBaseSt14default_deleteIS1_EESaIS4_EE4backEv,@function
_ZNSt6vectorISt10unique_ptrI10SensorBaseSt14default_deleteIS1_EESaIS4_EE4backEv: # @_ZNSt6vectorISt10unique_ptrI10SensorBaseSt14default_deleteIS1_EESaIS4_EE4backEv
	.cfi_startproc
# %bb.0:
	pushq	%rbp
	.cfi_def_cfa_offset 16
	.cfi_offset %rbp, -16
	movq	%rsp, %rbp
	.cfi_def_cfa_register %rbp
	subq	$32, %rsp
	movq	%rdi, -8(%rbp)
	movq	-8(%rbp), %rdi
	callq	_ZNSt6vectorISt10unique_ptrI10SensorBaseSt14default_deleteIS1_EESaIS4_EE3endEv
	movq	%rax, -24(%rbp)
	leaq	-24(%rbp), %rdi
	movl	$1, %esi
	callq	_ZNK9__gnu_cxx17__normal_iteratorIPSt10unique_ptrI10SensorBaseSt14default_deleteIS2_EESt6vectorIS5_SaIS5_EEEmiEl
	movq	%rax, -16(%rbp)
	leaq	-16(%rbp), %rdi
	callq	_ZNK9__gnu_cxx17__normal_iteratorIPSt10unique_ptrI10SensorBaseSt14default_deleteIS2_EESt6vectorIS5_SaIS5_EEEdeEv
	addq	$32, %rsp
	popq	%rbp
	.cfi_def_cfa %rsp, 8
	retq
.Lfunc_end41:
	.size	_ZNSt6vectorISt10unique_ptrI10SensorBaseSt14default_deleteIS1_EESaIS4_EE4backEv, .Lfunc_end41-_ZNSt6vectorISt10unique_ptrI10SensorBaseSt14default_deleteIS1_EESaIS4_EE4backEv
	.cfi_endproc
                                        # -- End function
	.section	.text._ZSt12construct_atISt10unique_ptrI10SensorBaseSt14default_deleteIS1_EEJS4_EEDTgsnwcvPvLi0E_T_pispclsr3stdE7declvalIT0_EEEEPS6_DpOS7_,"axG",@progbits,_ZSt12construct_atISt10unique_ptrI10SensorBaseSt14default_deleteIS1_EEJS4_EEDTgsnwcvPvLi0E_T_pispclsr3stdE7declvalIT0_EEEEPS6_DpOS7_,comdat
	.weak	_ZSt12construct_atISt10unique_ptrI10SensorBaseSt14default_deleteIS1_EEJS4_EEDTgsnwcvPvLi0E_T_pispclsr3stdE7declvalIT0_EEEEPS6_DpOS7_ # -- Begin function _ZSt12construct_atISt10unique_ptrI10SensorBaseSt14default_deleteIS1_EEJS4_EEDTgsnwcvPvLi0E_T_pispclsr3stdE7declvalIT0_EEEEPS6_DpOS7_
	.p2align	4, 0x90
	.type	_ZSt12construct_atISt10unique_ptrI10SensorBaseSt14default_deleteIS1_EEJS4_EEDTgsnwcvPvLi0E_T_pispclsr3stdE7declvalIT0_EEEEPS6_DpOS7_,@function
_ZSt12construct_atISt10unique_ptrI10SensorBaseSt14default_deleteIS1_EEJS4_EEDTgsnwcvPvLi0E_T_pispclsr3stdE7declvalIT0_EEEEPS6_DpOS7_: # @_ZSt12construct_atISt10unique_ptrI10SensorBaseSt14default_deleteIS1_EEJS4_EEDTgsnwcvPvLi0E_T_pispclsr3stdE7declvalIT0_EEEEPS6_DpOS7_
	.cfi_startproc
# %bb.0:
	pushq	%rbp
	.cfi_def_cfa_offset 16
	.cfi_offset %rbp, -16
	movq	%rsp, %rbp
	.cfi_def_cfa_register %rbp
	subq	$32, %rsp
	movq	%rdi, -8(%rbp)
	movq	%rsi, -16(%rbp)
	movq	-8(%rbp), %rax
	movq	%rax, -24(%rbp)                 # 8-byte Spill
	movq	-16(%rbp), %rdi
	callq	_ZSt7forwardISt10unique_ptrI10SensorBaseSt14default_deleteIS1_EEEOT_RNSt16remove_referenceIS5_E4typeE
	movq	-24(%rbp), %rdi                 # 8-byte Reload
	movq	%rax, %rsi
	callq	_ZNSt10unique_ptrI10SensorBaseSt14default_deleteIS0_EEC2EOS3_
	movq	-24(%rbp), %rax                 # 8-byte Reload
	addq	$32, %rsp
	popq	%rbp
	.cfi_def_cfa %rsp, 8
	retq
.Lfunc_end42:
	.size	_ZSt12construct_atISt10unique_ptrI10SensorBaseSt14default_deleteIS1_EEJS4_EEDTgsnwcvPvLi0E_T_pispclsr3stdE7declvalIT0_EEEEPS6_DpOS7_, .Lfunc_end42-_ZSt12construct_atISt10unique_ptrI10SensorBaseSt14default_deleteIS1_EEJS4_EEDTgsnwcvPvLi0E_T_pispclsr3stdE7declvalIT0_EEEEPS6_DpOS7_
	.cfi_endproc
                                        # -- End function
	.section	.text._ZNSt10unique_ptrI10SensorBaseSt14default_deleteIS0_EEC2EOS3_,"axG",@progbits,_ZNSt10unique_ptrI10SensorBaseSt14default_deleteIS0_EEC2EOS3_,comdat
	.weak	_ZNSt10unique_ptrI10SensorBaseSt14default_deleteIS0_EEC2EOS3_ # -- Begin function _ZNSt10unique_ptrI10SensorBaseSt14default_deleteIS0_EEC2EOS3_
	.p2align	4, 0x90
	.type	_ZNSt10unique_ptrI10SensorBaseSt14default_deleteIS0_EEC2EOS3_,@function
_ZNSt10unique_ptrI10SensorBaseSt14default_deleteIS0_EEC2EOS3_: # @_ZNSt10unique_ptrI10SensorBaseSt14default_deleteIS0_EEC2EOS3_
	.cfi_startproc
# %bb.0:
	pushq	%rbp
	.cfi_def_cfa_offset 16
	.cfi_offset %rbp, -16
	movq	%rsp, %rbp
	.cfi_def_cfa_register %rbp
	subq	$16, %rsp
	movq	%rdi, -8(%rbp)
	movq	%rsi, -16(%rbp)
	movq	-8(%rbp), %rdi
	movq	-16(%rbp), %rsi
	callq	_ZNSt15__uniq_ptr_dataI10SensorBaseSt14default_deleteIS0_ELb1ELb1EEC2EOS3_
	addq	$16, %rsp
	popq	%rbp
	.cfi_def_cfa %rsp, 8
	retq
.Lfunc_end43:
	.size	_ZNSt10unique_ptrI10SensorBaseSt14default_deleteIS0_EEC2EOS3_, .Lfunc_end43-_ZNSt10unique_ptrI10SensorBaseSt14default_deleteIS0_EEC2EOS3_
	.cfi_endproc
                                        # -- End function
	.section	.text._ZNSt15__uniq_ptr_dataI10SensorBaseSt14default_deleteIS0_ELb1ELb1EEC2EOS3_,"axG",@progbits,_ZNSt15__uniq_ptr_dataI10SensorBaseSt14default_deleteIS0_ELb1ELb1EEC2EOS3_,comdat
	.weak	_ZNSt15__uniq_ptr_dataI10SensorBaseSt14default_deleteIS0_ELb1ELb1EEC2EOS3_ # -- Begin function _ZNSt15__uniq_ptr_dataI10SensorBaseSt14default_deleteIS0_ELb1ELb1EEC2EOS3_
	.p2align	4, 0x90
	.type	_ZNSt15__uniq_ptr_dataI10SensorBaseSt14default_deleteIS0_ELb1ELb1EEC2EOS3_,@function
_ZNSt15__uniq_ptr_dataI10SensorBaseSt14default_deleteIS0_ELb1ELb1EEC2EOS3_: # @_ZNSt15__uniq_ptr_dataI10SensorBaseSt14default_deleteIS0_ELb1ELb1EEC2EOS3_
	.cfi_startproc
# %bb.0:
	pushq	%rbp
	.cfi_def_cfa_offset 16
	.cfi_offset %rbp, -16
	movq	%rsp, %rbp
	.cfi_def_cfa_register %rbp
	subq	$16, %rsp
	movq	%rdi, -8(%rbp)
	movq	%rsi, -16(%rbp)
	movq	-8(%rbp), %rdi
	movq	-16(%rbp), %rsi
	callq	_ZNSt15__uniq_ptr_implI10SensorBaseSt14default_deleteIS0_EEC2EOS3_
	addq	$16, %rsp
	popq	%rbp
	.cfi_def_cfa %rsp, 8
	retq
.Lfunc_end44:
	.size	_ZNSt15__uniq_ptr_dataI10SensorBaseSt14default_deleteIS0_ELb1ELb1EEC2EOS3_, .Lfunc_end44-_ZNSt15__uniq_ptr_dataI10SensorBaseSt14default_deleteIS0_ELb1ELb1EEC2EOS3_
	.cfi_endproc
                                        # -- End function
	.section	.text._ZNSt15__uniq_ptr_implI10SensorBaseSt14default_deleteIS0_EEC2EOS3_,"axG",@progbits,_ZNSt15__uniq_ptr_implI10SensorBaseSt14default_deleteIS0_EEC2EOS3_,comdat
	.weak	_ZNSt15__uniq_ptr_implI10SensorBaseSt14default_deleteIS0_EEC2EOS3_ # -- Begin function _ZNSt15__uniq_ptr_implI10SensorBaseSt14default_deleteIS0_EEC2EOS3_
	.p2align	4, 0x90
	.type	_ZNSt15__uniq_ptr_implI10SensorBaseSt14default_deleteIS0_EEC2EOS3_,@function
_ZNSt15__uniq_ptr_implI10SensorBaseSt14default_deleteIS0_EEC2EOS3_: # @_ZNSt15__uniq_ptr_implI10SensorBaseSt14default_deleteIS0_EEC2EOS3_
	.cfi_startproc
# %bb.0:
	pushq	%rbp
	.cfi_def_cfa_offset 16
	.cfi_offset %rbp, -16
	movq	%rsp, %rbp
	.cfi_def_cfa_register %rbp
	subq	$32, %rsp
	movq	%rdi, -8(%rbp)
	movq	%rsi, -16(%rbp)
	movq	-8(%rbp), %rax
	movq	%rax, -24(%rbp)                 # 8-byte Spill
	movq	-16(%rbp), %rdi
	callq	_ZSt4moveIRSt5tupleIJP10SensorBaseSt14default_deleteIS1_EEEEONSt16remove_referenceIT_E4typeEOS8_
	movq	-24(%rbp), %rdi                 # 8-byte Reload
	movq	%rax, %rsi
	callq	_ZNSt5tupleIJP10SensorBaseSt14default_deleteIS0_EEEC2EOS4_
	movq	-16(%rbp), %rdi
	callq	_ZNSt15__uniq_ptr_implI10SensorBaseSt14default_deleteIS0_EE6_M_ptrEv
	movq	$0, (%rax)
	addq	$32, %rsp
	popq	%rbp
	.cfi_def_cfa %rsp, 8
	retq
.Lfunc_end45:
	.size	_ZNSt15__uniq_ptr_implI10SensorBaseSt14default_deleteIS0_EEC2EOS3_, .Lfunc_end45-_ZNSt15__uniq_ptr_implI10SensorBaseSt14default_deleteIS0_EEC2EOS3_
	.cfi_endproc
                                        # -- End function
	.section	.text._ZSt4moveIRSt5tupleIJP10SensorBaseSt14default_deleteIS1_EEEEONSt16remove_referenceIT_E4typeEOS8_,"axG",@progbits,_ZSt4moveIRSt5tupleIJP10SensorBaseSt14default_deleteIS1_EEEEONSt16remove_referenceIT_E4typeEOS8_,comdat
	.weak	_ZSt4moveIRSt5tupleIJP10SensorBaseSt14default_deleteIS1_EEEEONSt16remove_referenceIT_E4typeEOS8_ # -- Begin function _ZSt4moveIRSt5tupleIJP10SensorBaseSt14default_deleteIS1_EEEEONSt16remove_referenceIT_E4typeEOS8_
	.p2align	4, 0x90
	.type	_ZSt4moveIRSt5tupleIJP10SensorBaseSt14default_deleteIS1_EEEEONSt16remove_referenceIT_E4typeEOS8_,@function
_ZSt4moveIRSt5tupleIJP10SensorBaseSt14default_deleteIS1_EEEEONSt16remove_referenceIT_E4typeEOS8_: # @_ZSt4moveIRSt5tupleIJP10SensorBaseSt14default_deleteIS1_EEEEONSt16remove_referenceIT_E4typeEOS8_
	.cfi_startproc
# %bb.0:
	pushq	%rbp
	.cfi_def_cfa_offset 16
	.cfi_offset %rbp, -16
	movq	%rsp, %rbp
	.cfi_def_cfa_register %rbp
	movq	%rdi, -8(%rbp)
	movq	-8(%rbp), %rax
	popq	%rbp
	.cfi_def_cfa %rsp, 8
	retq
.Lfunc_end46:
	.size	_ZSt4moveIRSt5tupleIJP10SensorBaseSt14default_deleteIS1_EEEEONSt16remove_referenceIT_E4typeEOS8_, .Lfunc_end46-_ZSt4moveIRSt5tupleIJP10SensorBaseSt14default_deleteIS1_EEEEONSt16remove_referenceIT_E4typeEOS8_
	.cfi_endproc
                                        # -- End function
	.section	.text._ZNSt5tupleIJP10SensorBaseSt14default_deleteIS0_EEEC2EOS4_,"axG",@progbits,_ZNSt5tupleIJP10SensorBaseSt14default_deleteIS0_EEEC2EOS4_,comdat
	.weak	_ZNSt5tupleIJP10SensorBaseSt14default_deleteIS0_EEEC2EOS4_ # -- Begin function _ZNSt5tupleIJP10SensorBaseSt14default_deleteIS0_EEEC2EOS4_
	.p2align	4, 0x90
	.type	_ZNSt5tupleIJP10SensorBaseSt14default_deleteIS0_EEEC2EOS4_,@function
_ZNSt5tupleIJP10SensorBaseSt14default_deleteIS0_EEEC2EOS4_: # @_ZNSt5tupleIJP10SensorBaseSt14default_deleteIS0_EEEC2EOS4_
	.cfi_startproc
# %bb.0:
	pushq	%rbp
	.cfi_def_cfa_offset 16
	.cfi_offset %rbp, -16
	movq	%rsp, %rbp
	.cfi_def_cfa_register %rbp
	subq	$16, %rsp
	movq	%rdi, -8(%rbp)
	movq	%rsi, -16(%rbp)
	movq	-8(%rbp), %rdi
	movq	-16(%rbp), %rsi
	callq	_ZNSt11_Tuple_implILm0EJP10SensorBaseSt14default_deleteIS0_EEEC2EOS4_
	addq	$16, %rsp
	popq	%rbp
	.cfi_def_cfa %rsp, 8
	retq
.Lfunc_end47:
	.size	_ZNSt5tupleIJP10SensorBaseSt14default_deleteIS0_EEEC2EOS4_, .Lfunc_end47-_ZNSt5tupleIJP10SensorBaseSt14default_deleteIS0_EEEC2EOS4_
	.cfi_endproc
                                        # -- End function
	.section	.text._ZNSt15__uniq_ptr_implI10SensorBaseSt14default_deleteIS0_EE6_M_ptrEv,"axG",@progbits,_ZNSt15__uniq_ptr_implI10SensorBaseSt14default_deleteIS0_EE6_M_ptrEv,comdat
	.weak	_ZNSt15__uniq_ptr_implI10SensorBaseSt14default_deleteIS0_EE6_M_ptrEv # -- Begin function _ZNSt15__uniq_ptr_implI10SensorBaseSt14default_deleteIS0_EE6_M_ptrEv
	.p2align	4, 0x90
	.type	_ZNSt15__uniq_ptr_implI10SensorBaseSt14default_deleteIS0_EE6_M_ptrEv,@function
_ZNSt15__uniq_ptr_implI10SensorBaseSt14default_deleteIS0_EE6_M_ptrEv: # @_ZNSt15__uniq_ptr_implI10SensorBaseSt14default_deleteIS0_EE6_M_ptrEv
	.cfi_startproc
# %bb.0:
	pushq	%rbp
	.cfi_def_cfa_offset 16
	.cfi_offset %rbp, -16
	movq	%rsp, %rbp
	.cfi_def_cfa_register %rbp
	subq	$16, %rsp
	movq	%rdi, -8(%rbp)
	movq	-8(%rbp), %rdi
	callq	_ZSt3getILm0EJP10SensorBaseSt14default_deleteIS0_EEERNSt13tuple_elementIXT_ESt5tupleIJDpT0_EEE4typeERS8_
	addq	$16, %rsp
	popq	%rbp
	.cfi_def_cfa %rsp, 8
	retq
.Lfunc_end48:
	.size	_ZNSt15__uniq_ptr_implI10SensorBaseSt14default_deleteIS0_EE6_M_ptrEv, .Lfunc_end48-_ZNSt15__uniq_ptr_implI10SensorBaseSt14default_deleteIS0_EE6_M_ptrEv
	.cfi_endproc
                                        # -- End function
	.section	.text._ZNSt11_Tuple_implILm0EJP10SensorBaseSt14default_deleteIS0_EEEC2EOS4_,"axG",@progbits,_ZNSt11_Tuple_implILm0EJP10SensorBaseSt14default_deleteIS0_EEEC2EOS4_,comdat
	.weak	_ZNSt11_Tuple_implILm0EJP10SensorBaseSt14default_deleteIS0_EEEC2EOS4_ # -- Begin function _ZNSt11_Tuple_implILm0EJP10SensorBaseSt14default_deleteIS0_EEEC2EOS4_
	.p2align	4, 0x90
	.type	_ZNSt11_Tuple_implILm0EJP10SensorBaseSt14default_deleteIS0_EEEC2EOS4_,@function
_ZNSt11_Tuple_implILm0EJP10SensorBaseSt14default_deleteIS0_EEEC2EOS4_: # @_ZNSt11_Tuple_implILm0EJP10SensorBaseSt14default_deleteIS0_EEEC2EOS4_
	.cfi_startproc
# %bb.0:
	pushq	%rbp
	.cfi_def_cfa_offset 16
	.cfi_offset %rbp, -16
	movq	%rsp, %rbp
	.cfi_def_cfa_register %rbp
	subq	$32, %rsp
	movq	%rdi, -8(%rbp)
	movq	%rsi, -16(%rbp)
	movq	-8(%rbp), %rdi
	movq	%rdi, -24(%rbp)                 # 8-byte Spill
	movq	-16(%rbp), %rsi
	callq	_ZNSt11_Tuple_implILm1EJSt14default_deleteI10SensorBaseEEEC2EOS3_
	movq	-24(%rbp), %rax                 # 8-byte Reload
	movq	-16(%rbp), %rcx
	movq	(%rcx), %rcx
	movq	%rcx, (%rax)
	addq	$32, %rsp
	popq	%rbp
	.cfi_def_cfa %rsp, 8
	retq
.Lfunc_end49:
	.size	_ZNSt11_Tuple_implILm0EJP10SensorBaseSt14default_deleteIS0_EEEC2EOS4_, .Lfunc_end49-_ZNSt11_Tuple_implILm0EJP10SensorBaseSt14default_deleteIS0_EEEC2EOS4_
	.cfi_endproc
                                        # -- End function
	.section	.text._ZNSt11_Tuple_implILm1EJSt14default_deleteI10SensorBaseEEEC2EOS3_,"axG",@progbits,_ZNSt11_Tuple_implILm1EJSt14default_deleteI10SensorBaseEEEC2EOS3_,comdat
	.weak	_ZNSt11_Tuple_implILm1EJSt14default_deleteI10SensorBaseEEEC2EOS3_ # -- Begin function _ZNSt11_Tuple_implILm1EJSt14default_deleteI10SensorBaseEEEC2EOS3_
	.p2align	4, 0x90
	.type	_ZNSt11_Tuple_implILm1EJSt14default_deleteI10SensorBaseEEEC2EOS3_,@function
_ZNSt11_Tuple_implILm1EJSt14default_deleteI10SensorBaseEEEC2EOS3_: # @_ZNSt11_Tuple_implILm1EJSt14default_deleteI10SensorBaseEEEC2EOS3_
	.cfi_startproc
# %bb.0:
	pushq	%rbp
	.cfi_def_cfa_offset 16
	.cfi_offset %rbp, -16
	movq	%rsp, %rbp
	.cfi_def_cfa_register %rbp
	movq	%rdi, -8(%rbp)
	movq	%rsi, -16(%rbp)
	popq	%rbp
	.cfi_def_cfa %rsp, 8
	retq
.Lfunc_end50:
	.size	_ZNSt11_Tuple_implILm1EJSt14default_deleteI10SensorBaseEEEC2EOS3_, .Lfunc_end50-_ZNSt11_Tuple_implILm1EJSt14default_deleteI10SensorBaseEEEC2EOS3_
	.cfi_endproc
                                        # -- End function
	.section	.text._ZSt3getILm0EJP10SensorBaseSt14default_deleteIS0_EEERNSt13tuple_elementIXT_ESt5tupleIJDpT0_EEE4typeERS8_,"axG",@progbits,_ZSt3getILm0EJP10SensorBaseSt14default_deleteIS0_EEERNSt13tuple_elementIXT_ESt5tupleIJDpT0_EEE4typeERS8_,comdat
	.weak	_ZSt3getILm0EJP10SensorBaseSt14default_deleteIS0_EEERNSt13tuple_elementIXT_ESt5tupleIJDpT0_EEE4typeERS8_ # -- Begin function _ZSt3getILm0EJP10SensorBaseSt14default_deleteIS0_EEERNSt13tuple_elementIXT_ESt5tupleIJDpT0_EEE4typeERS8_
	.p2align	4, 0x90
	.type	_ZSt3getILm0EJP10SensorBaseSt14default_deleteIS0_EEERNSt13tuple_elementIXT_ESt5tupleIJDpT0_EEE4typeERS8_,@function
_ZSt3getILm0EJP10SensorBaseSt14default_deleteIS0_EEERNSt13tuple_elementIXT_ESt5tupleIJDpT0_EEE4typeERS8_: # @_ZSt3getILm0EJP10SensorBaseSt14default_deleteIS0_EEERNSt13tuple_elementIXT_ESt5tupleIJDpT0_EEE4typeERS8_
	.cfi_startproc
# %bb.0:
	pushq	%rbp
	.cfi_def_cfa_offset 16
	.cfi_offset %rbp, -16
	movq	%rsp, %rbp
	.cfi_def_cfa_register %rbp
	subq	$16, %rsp
	movq	%rdi, -8(%rbp)
	movq	-8(%rbp), %rdi
	callq	_ZSt12__get_helperILm0EP10SensorBaseJSt14default_deleteIS0_EEERT0_RSt11_Tuple_implIXT_EJS4_DpT1_EE
	addq	$16, %rsp
	popq	%rbp
	.cfi_def_cfa %rsp, 8
	retq
.Lfunc_end51:
	.size	_ZSt3getILm0EJP10SensorBaseSt14default_deleteIS0_EEERNSt13tuple_elementIXT_ESt5tupleIJDpT0_EEE4typeERS8_, .Lfunc_end51-_ZSt3getILm0EJP10SensorBaseSt14default_deleteIS0_EEERNSt13tuple_elementIXT_ESt5tupleIJDpT0_EEE4typeERS8_
	.cfi_endproc
                                        # -- End function
	.section	.text._ZSt12__get_helperILm0EP10SensorBaseJSt14default_deleteIS0_EEERT0_RSt11_Tuple_implIXT_EJS4_DpT1_EE,"axG",@progbits,_ZSt12__get_helperILm0EP10SensorBaseJSt14default_deleteIS0_EEERT0_RSt11_Tuple_implIXT_EJS4_DpT1_EE,comdat
	.weak	_ZSt12__get_helperILm0EP10SensorBaseJSt14default_deleteIS0_EEERT0_RSt11_Tuple_implIXT_EJS4_DpT1_EE # -- Begin function _ZSt12__get_helperILm0EP10SensorBaseJSt14default_deleteIS0_EEERT0_RSt11_Tuple_implIXT_EJS4_DpT1_EE
	.p2align	4, 0x90
	.type	_ZSt12__get_helperILm0EP10SensorBaseJSt14default_deleteIS0_EEERT0_RSt11_Tuple_implIXT_EJS4_DpT1_EE,@function
_ZSt12__get_helperILm0EP10SensorBaseJSt14default_deleteIS0_EEERT0_RSt11_Tuple_implIXT_EJS4_DpT1_EE: # @_ZSt12__get_helperILm0EP10SensorBaseJSt14default_deleteIS0_EEERT0_RSt11_Tuple_implIXT_EJS4_DpT1_EE
	.cfi_startproc
# %bb.0:
	pushq	%rbp
	.cfi_def_cfa_offset 16
	.cfi_offset %rbp, -16
	movq	%rsp, %rbp
	.cfi_def_cfa_register %rbp
	subq	$16, %rsp
	movq	%rdi, -8(%rbp)
	movq	-8(%rbp), %rdi
	callq	_ZNSt11_Tuple_implILm0EJP10SensorBaseSt14default_deleteIS0_EEE7_M_headERS4_
	addq	$16, %rsp
	popq	%rbp
	.cfi_def_cfa %rsp, 8
	retq
.Lfunc_end52:
	.size	_ZSt12__get_helperILm0EP10SensorBaseJSt14default_deleteIS0_EEERT0_RSt11_Tuple_implIXT_EJS4_DpT1_EE, .Lfunc_end52-_ZSt12__get_helperILm0EP10SensorBaseJSt14default_deleteIS0_EEERT0_RSt11_Tuple_implIXT_EJS4_DpT1_EE
	.cfi_endproc
                                        # -- End function
	.section	.text._ZNSt11_Tuple_implILm0EJP10SensorBaseSt14default_deleteIS0_EEE7_M_headERS4_,"axG",@progbits,_ZNSt11_Tuple_implILm0EJP10SensorBaseSt14default_deleteIS0_EEE7_M_headERS4_,comdat
	.weak	_ZNSt11_Tuple_implILm0EJP10SensorBaseSt14default_deleteIS0_EEE7_M_headERS4_ # -- Begin function _ZNSt11_Tuple_implILm0EJP10SensorBaseSt14default_deleteIS0_EEE7_M_headERS4_
	.p2align	4, 0x90
	.type	_ZNSt11_Tuple_implILm0EJP10SensorBaseSt14default_deleteIS0_EEE7_M_headERS4_,@function
_ZNSt11_Tuple_implILm0EJP10SensorBaseSt14default_deleteIS0_EEE7_M_headERS4_: # @_ZNSt11_Tuple_implILm0EJP10SensorBaseSt14default_deleteIS0_EEE7_M_headERS4_
	.cfi_startproc
# %bb.0:
	pushq	%rbp
	.cfi_def_cfa_offset 16
	.cfi_offset %rbp, -16
	movq	%rsp, %rbp
	.cfi_def_cfa_register %rbp
	subq	$16, %rsp
	movq	%rdi, -8(%rbp)
	movq	-8(%rbp), %rdi
	callq	_ZNSt10_Head_baseILm0EP10SensorBaseLb0EE7_M_headERS2_
	addq	$16, %rsp
	popq	%rbp
	.cfi_def_cfa %rsp, 8
	retq
.Lfunc_end53:
	.size	_ZNSt11_Tuple_implILm0EJP10SensorBaseSt14default_deleteIS0_EEE7_M_headERS4_, .Lfunc_end53-_ZNSt11_Tuple_implILm0EJP10SensorBaseSt14default_deleteIS0_EEE7_M_headERS4_
	.cfi_endproc
                                        # -- End function
	.section	.text._ZNSt10_Head_baseILm0EP10SensorBaseLb0EE7_M_headERS2_,"axG",@progbits,_ZNSt10_Head_baseILm0EP10SensorBaseLb0EE7_M_headERS2_,comdat
	.weak	_ZNSt10_Head_baseILm0EP10SensorBaseLb0EE7_M_headERS2_ # -- Begin function _ZNSt10_Head_baseILm0EP10SensorBaseLb0EE7_M_headERS2_
	.p2align	4, 0x90
	.type	_ZNSt10_Head_baseILm0EP10SensorBaseLb0EE7_M_headERS2_,@function
_ZNSt10_Head_baseILm0EP10SensorBaseLb0EE7_M_headERS2_: # @_ZNSt10_Head_baseILm0EP10SensorBaseLb0EE7_M_headERS2_
	.cfi_startproc
# %bb.0:
	pushq	%rbp
	.cfi_def_cfa_offset 16
	.cfi_offset %rbp, -16
	movq	%rsp, %rbp
	.cfi_def_cfa_register %rbp
	movq	%rdi, -8(%rbp)
	movq	-8(%rbp), %rax
	popq	%rbp
	.cfi_def_cfa %rsp, 8
	retq
.Lfunc_end54:
	.size	_ZNSt10_Head_baseILm0EP10SensorBaseLb0EE7_M_headERS2_, .Lfunc_end54-_ZNSt10_Head_baseILm0EP10SensorBaseLb0EE7_M_headERS2_
	.cfi_endproc
                                        # -- End function
	.section	.text._ZNKSt6vectorISt10unique_ptrI10SensorBaseSt14default_deleteIS1_EESaIS4_EE12_M_check_lenEmPKc,"axG",@progbits,_ZNKSt6vectorISt10unique_ptrI10SensorBaseSt14default_deleteIS1_EESaIS4_EE12_M_check_lenEmPKc,comdat
	.weak	_ZNKSt6vectorISt10unique_ptrI10SensorBaseSt14default_deleteIS1_EESaIS4_EE12_M_check_lenEmPKc # -- Begin function _ZNKSt6vectorISt10unique_ptrI10SensorBaseSt14default_deleteIS1_EESaIS4_EE12_M_check_lenEmPKc
	.p2align	4, 0x90
	.type	_ZNKSt6vectorISt10unique_ptrI10SensorBaseSt14default_deleteIS1_EESaIS4_EE12_M_check_lenEmPKc,@function
_ZNKSt6vectorISt10unique_ptrI10SensorBaseSt14default_deleteIS1_EESaIS4_EE12_M_check_lenEmPKc: # @_ZNKSt6vectorISt10unique_ptrI10SensorBaseSt14default_deleteIS1_EESaIS4_EE12_M_check_lenEmPKc
	.cfi_startproc
# %bb.0:
	pushq	%rbp
	.cfi_def_cfa_offset 16
	.cfi_offset %rbp, -16
	movq	%rsp, %rbp
	.cfi_def_cfa_register %rbp
	subq	$96, %rsp
	movq	%rdi, -8(%rbp)
	movq	%rsi, -16(%rbp)
	movq	%rdx, -24(%rbp)
	movq	-8(%rbp), %rdi
	movq	%rdi, -56(%rbp)                 # 8-byte Spill
	callq	_ZNKSt6vectorISt10unique_ptrI10SensorBaseSt14default_deleteIS1_EESaIS4_EE8max_sizeEv
	movq	-56(%rbp), %rdi                 # 8-byte Reload
	movq	%rax, -48(%rbp)                 # 8-byte Spill
	callq	_ZNKSt6vectorISt10unique_ptrI10SensorBaseSt14default_deleteIS1_EESaIS4_EE4sizeEv
	movq	%rax, %rcx
	movq	-48(%rbp), %rax                 # 8-byte Reload
	subq	%rcx, %rax
	cmpq	-16(%rbp), %rax
	jae	.LBB55_2
# %bb.1:
	movq	-24(%rbp), %rdi
	callq	_ZSt20__throw_length_errorPKc@PLT
.LBB55_2:
	movq	-56(%rbp), %rdi                 # 8-byte Reload
	callq	_ZNKSt6vectorISt10unique_ptrI10SensorBaseSt14default_deleteIS1_EESaIS4_EE4sizeEv
	movq	-56(%rbp), %rdi                 # 8-byte Reload
	movq	%rax, -72(%rbp)                 # 8-byte Spill
	callq	_ZNKSt6vectorISt10unique_ptrI10SensorBaseSt14default_deleteIS1_EESaIS4_EE4sizeEv
	movq	%rax, -40(%rbp)
	leaq	-40(%rbp), %rdi
	leaq	-16(%rbp), %rsi
	callq	_ZSt3maxImERKT_S2_S2_
	movq	-56(%rbp), %rdi                 # 8-byte Reload
	movq	%rax, %rcx
	movq	-72(%rbp), %rax                 # 8-byte Reload
	addq	(%rcx), %rax
	movq	%rax, -32(%rbp)
	movq	-32(%rbp), %rax
	movq	%rax, -64(%rbp)                 # 8-byte Spill
	callq	_ZNKSt6vectorISt10unique_ptrI10SensorBaseSt14default_deleteIS1_EESaIS4_EE4sizeEv
	movq	%rax, %rcx
	movq	-64(%rbp), %rax                 # 8-byte Reload
	cmpq	%rcx, %rax
	jb	.LBB55_4
# %bb.3:
	movq	-56(%rbp), %rdi                 # 8-byte Reload
	movq	-32(%rbp), %rax
	movq	%rax, -80(%rbp)                 # 8-byte Spill
	callq	_ZNKSt6vectorISt10unique_ptrI10SensorBaseSt14default_deleteIS1_EESaIS4_EE8max_sizeEv
	movq	%rax, %rcx
	movq	-80(%rbp), %rax                 # 8-byte Reload
	cmpq	%rcx, %rax
	jbe	.LBB55_5
.LBB55_4:
	movq	-56(%rbp), %rdi                 # 8-byte Reload
	callq	_ZNKSt6vectorISt10unique_ptrI10SensorBaseSt14default_deleteIS1_EESaIS4_EE8max_sizeEv
	movq	%rax, -88(%rbp)                 # 8-byte Spill
	jmp	.LBB55_6
.LBB55_5:
	movq	-32(%rbp), %rax
	movq	%rax, -88(%rbp)                 # 8-byte Spill
.LBB55_6:
	movq	-88(%rbp), %rax                 # 8-byte Reload
	addq	$96, %rsp
	popq	%rbp
	.cfi_def_cfa %rsp, 8
	retq
.Lfunc_end55:
	.size	_ZNKSt6vectorISt10unique_ptrI10SensorBaseSt14default_deleteIS1_EESaIS4_EE12_M_check_lenEmPKc, .Lfunc_end55-_ZNKSt6vectorISt10unique_ptrI10SensorBaseSt14default_deleteIS1_EESaIS4_EE12_M_check_lenEmPKc
	.cfi_endproc
                                        # -- End function
	.section	.text._ZN9__gnu_cxxmiIPSt10unique_ptrI10SensorBaseSt14default_deleteIS2_EESt6vectorIS5_SaIS5_EEEENS_17__normal_iteratorIT_T0_E15difference_typeERKSD_SG_,"axG",@progbits,_ZN9__gnu_cxxmiIPSt10unique_ptrI10SensorBaseSt14default_deleteIS2_EESt6vectorIS5_SaIS5_EEEENS_17__normal_iteratorIT_T0_E15difference_typeERKSD_SG_,comdat
	.weak	_ZN9__gnu_cxxmiIPSt10unique_ptrI10SensorBaseSt14default_deleteIS2_EESt6vectorIS5_SaIS5_EEEENS_17__normal_iteratorIT_T0_E15difference_typeERKSD_SG_ # -- Begin function _ZN9__gnu_cxxmiIPSt10unique_ptrI10SensorBaseSt14default_deleteIS2_EESt6vectorIS5_SaIS5_EEEENS_17__normal_iteratorIT_T0_E15difference_typeERKSD_SG_
	.p2align	4, 0x90
	.type	_ZN9__gnu_cxxmiIPSt10unique_ptrI10SensorBaseSt14default_deleteIS2_EESt6vectorIS5_SaIS5_EEEENS_17__normal_iteratorIT_T0_E15difference_typeERKSD_SG_,@function
_ZN9__gnu_cxxmiIPSt10unique_ptrI10SensorBaseSt14default_deleteIS2_EESt6vectorIS5_SaIS5_EEEENS_17__normal_iteratorIT_T0_E15difference_typeERKSD_SG_: # @_ZN9__gnu_cxxmiIPSt10unique_ptrI10SensorBaseSt14default_deleteIS2_EESt6vectorIS5_SaIS5_EEEENS_17__normal_iteratorIT_T0_E15difference_typeERKSD_SG_
	.cfi_startproc
# %bb.0:
	pushq	%rbp
	.cfi_def_cfa_offset 16
	.cfi_offset %rbp, -16
	movq	%rsp, %rbp
	.cfi_def_cfa_register %rbp
	subq	$32, %rsp
	movq	%rdi, -8(%rbp)
	movq	%rsi, -16(%rbp)
	movq	-8(%rbp), %rdi
	callq	_ZNK9__gnu_cxx17__normal_iteratorIPSt10unique_ptrI10SensorBaseSt14default_deleteIS2_EESt6vectorIS5_SaIS5_EEE4baseEv
	movq	(%rax), %rax
	movq	%rax, -24(%rbp)                 # 8-byte Spill
	movq	-16(%rbp), %rdi
	callq	_ZNK9__gnu_cxx17__normal_iteratorIPSt10unique_ptrI10SensorBaseSt14default_deleteIS2_EESt6vectorIS5_SaIS5_EEE4baseEv
	movq	%rax, %rcx
	movq	-24(%rbp), %rax                 # 8-byte Reload
	movq	(%rcx), %rcx
	subq	%rcx, %rax
	sarq	$3, %rax
	addq	$32, %rsp
	popq	%rbp
	.cfi_def_cfa %rsp, 8
	retq
.Lfunc_end56:
	.size	_ZN9__gnu_cxxmiIPSt10unique_ptrI10SensorBaseSt14default_deleteIS2_EESt6vectorIS5_SaIS5_EEEENS_17__normal_iteratorIT_T0_E15difference_typeERKSD_SG_, .Lfunc_end56-_ZN9__gnu_cxxmiIPSt10unique_ptrI10SensorBaseSt14default_deleteIS2_EESt6vectorIS5_SaIS5_EEEENS_17__normal_iteratorIT_T0_E15difference_typeERKSD_SG_
	.cfi_endproc
                                        # -- End function
	.section	.text._ZNSt6vectorISt10unique_ptrI10SensorBaseSt14default_deleteIS1_EESaIS4_EE5beginEv,"axG",@progbits,_ZNSt6vectorISt10unique_ptrI10SensorBaseSt14default_deleteIS1_EESaIS4_EE5beginEv,comdat
	.weak	_ZNSt6vectorISt10unique_ptrI10SensorBaseSt14default_deleteIS1_EESaIS4_EE5beginEv # -- Begin function _ZNSt6vectorISt10unique_ptrI10SensorBaseSt14default_deleteIS1_EESaIS4_EE5beginEv
	.p2align	4, 0x90
	.type	_ZNSt6vectorISt10unique_ptrI10SensorBaseSt14default_deleteIS1_EESaIS4_EE5beginEv,@function
_ZNSt6vectorISt10unique_ptrI10SensorBaseSt14default_deleteIS1_EESaIS4_EE5beginEv: # @_ZNSt6vectorISt10unique_ptrI10SensorBaseSt14default_deleteIS1_EESaIS4_EE5beginEv
	.cfi_startproc
# %bb.0:
	pushq	%rbp
	.cfi_def_cfa_offset 16
	.cfi_offset %rbp, -16
	movq	%rsp, %rbp
	.cfi_def_cfa_register %rbp
	subq	$16, %rsp
	movq	%rdi, -16(%rbp)
	movq	-16(%rbp), %rsi
	leaq	-8(%rbp), %rdi
	callq	_ZN9__gnu_cxx17__normal_iteratorIPSt10unique_ptrI10SensorBaseSt14default_deleteIS2_EESt6vectorIS5_SaIS5_EEEC2ERKS6_
	movq	-8(%rbp), %rax
	addq	$16, %rsp
	popq	%rbp
	.cfi_def_cfa %rsp, 8
	retq
.Lfunc_end57:
	.size	_ZNSt6vectorISt10unique_ptrI10SensorBaseSt14default_deleteIS1_EESaIS4_EE5beginEv, .Lfunc_end57-_ZNSt6vectorISt10unique_ptrI10SensorBaseSt14default_deleteIS1_EESaIS4_EE5beginEv
	.cfi_endproc
                                        # -- End function
	.section	.text._ZNSt12_Vector_baseISt10unique_ptrI10SensorBaseSt14default_deleteIS1_EESaIS4_EE11_M_allocateEm,"axG",@progbits,_ZNSt12_Vector_baseISt10unique_ptrI10SensorBaseSt14default_deleteIS1_EESaIS4_EE11_M_allocateEm,comdat
	.weak	_ZNSt12_Vector_baseISt10unique_ptrI10SensorBaseSt14default_deleteIS1_EESaIS4_EE11_M_allocateEm # -- Begin function _ZNSt12_Vector_baseISt10unique_ptrI10SensorBaseSt14default_deleteIS1_EESaIS4_EE11_M_allocateEm
	.p2align	4, 0x90
	.type	_ZNSt12_Vector_baseISt10unique_ptrI10SensorBaseSt14default_deleteIS1_EESaIS4_EE11_M_allocateEm,@function
_ZNSt12_Vector_baseISt10unique_ptrI10SensorBaseSt14default_deleteIS1_EESaIS4_EE11_M_allocateEm: # @_ZNSt12_Vector_baseISt10unique_ptrI10SensorBaseSt14default_deleteIS1_EESaIS4_EE11_M_allocateEm
	.cfi_startproc
# %bb.0:
	pushq	%rbp
	.cfi_def_cfa_offset 16
	.cfi_offset %rbp, -16
	movq	%rsp, %rbp
	.cfi_def_cfa_register %rbp
	subq	$64, %rsp
	movq	%rdi, -40(%rbp)
	movq	%rsi, -48(%rbp)
	movq	-40(%rbp), %rax
	movq	%rax, -56(%rbp)                 # 8-byte Spill
	cmpq	$0, -48(%rbp)
	je	.LBB58_2
# %bb.1:
	movq	-56(%rbp), %rcx                 # 8-byte Reload
	movq	-48(%rbp), %rax
	movq	%rcx, -24(%rbp)
	movq	%rax, -32(%rbp)
	movq	-24(%rbp), %rcx
	movq	-32(%rbp), %rax
	movq	%rcx, -8(%rbp)
	movq	%rax, -16(%rbp)
	movq	-8(%rbp), %rdi
	movq	-16(%rbp), %rsi
	xorl	%eax, %eax
	movl	%eax, %edx
	callq	_ZNSt15__new_allocatorISt10unique_ptrI10SensorBaseSt14default_deleteIS1_EEE8allocateEmPKv
	movq	%rax, -64(%rbp)                 # 8-byte Spill
	jmp	.LBB58_3
.LBB58_2:
	xorl	%eax, %eax
                                        # kill: def $rax killed $eax
	movq	%rax, -64(%rbp)                 # 8-byte Spill
	jmp	.LBB58_3
.LBB58_3:
	movq	-64(%rbp), %rax                 # 8-byte Reload
	addq	$64, %rsp
	popq	%rbp
	.cfi_def_cfa %rsp, 8
	retq
.Lfunc_end58:
	.size	_ZNSt12_Vector_baseISt10unique_ptrI10SensorBaseSt14default_deleteIS1_EESaIS4_EE11_M_allocateEm, .Lfunc_end58-_ZNSt12_Vector_baseISt10unique_ptrI10SensorBaseSt14default_deleteIS1_EESaIS4_EE11_M_allocateEm
	.cfi_endproc
                                        # -- End function
	.section	.text._ZNSt6vectorISt10unique_ptrI10SensorBaseSt14default_deleteIS1_EESaIS4_EE11_S_relocateEPS4_S7_S7_RS5_,"axG",@progbits,_ZNSt6vectorISt10unique_ptrI10SensorBaseSt14default_deleteIS1_EESaIS4_EE11_S_relocateEPS4_S7_S7_RS5_,comdat
	.weak	_ZNSt6vectorISt10unique_ptrI10SensorBaseSt14default_deleteIS1_EESaIS4_EE11_S_relocateEPS4_S7_S7_RS5_ # -- Begin function _ZNSt6vectorISt10unique_ptrI10SensorBaseSt14default_deleteIS1_EESaIS4_EE11_S_relocateEPS4_S7_S7_RS5_
	.p2align	4, 0x90
	.type	_ZNSt6vectorISt10unique_ptrI10SensorBaseSt14default_deleteIS1_EESaIS4_EE11_S_relocateEPS4_S7_S7_RS5_,@function
_ZNSt6vectorISt10unique_ptrI10SensorBaseSt14default_deleteIS1_EESaIS4_EE11_S_relocateEPS4_S7_S7_RS5_: # @_ZNSt6vectorISt10unique_ptrI10SensorBaseSt14default_deleteIS1_EESaIS4_EE11_S_relocateEPS4_S7_S7_RS5_
	.cfi_startproc
# %bb.0:
	pushq	%rbp
	.cfi_def_cfa_offset 16
	.cfi_offset %rbp, -16
	movq	%rsp, %rbp
	.cfi_def_cfa_register %rbp
	subq	$32, %rsp
	movq	%rdi, -8(%rbp)
	movq	%rsi, -16(%rbp)
	movq	%rdx, -24(%rbp)
	movq	%rcx, -32(%rbp)
	movq	-8(%rbp), %rdi
	movq	-16(%rbp), %rsi
	movq	-24(%rbp), %rdx
	movq	-32(%rbp), %rcx
	callq	_ZSt12__relocate_aIPSt10unique_ptrI10SensorBaseSt14default_deleteIS1_EES5_SaIS4_EET0_T_S8_S7_RT1_
	addq	$32, %rsp
	popq	%rbp
	.cfi_def_cfa %rsp, 8
	retq
.Lfunc_end59:
	.size	_ZNSt6vectorISt10unique_ptrI10SensorBaseSt14default_deleteIS1_EESaIS4_EE11_S_relocateEPS4_S7_S7_RS5_, .Lfunc_end59-_ZNSt6vectorISt10unique_ptrI10SensorBaseSt14default_deleteIS1_EESaIS4_EE11_S_relocateEPS4_S7_S7_RS5_
	.cfi_endproc
                                        # -- End function
	.section	.text._ZNK9__gnu_cxx17__normal_iteratorIPSt10unique_ptrI10SensorBaseSt14default_deleteIS2_EESt6vectorIS5_SaIS5_EEE4baseEv,"axG",@progbits,_ZNK9__gnu_cxx17__normal_iteratorIPSt10unique_ptrI10SensorBaseSt14default_deleteIS2_EESt6vectorIS5_SaIS5_EEE4baseEv,comdat
	.weak	_ZNK9__gnu_cxx17__normal_iteratorIPSt10unique_ptrI10SensorBaseSt14default_deleteIS2_EESt6vectorIS5_SaIS5_EEE4baseEv # -- Begin function _ZNK9__gnu_cxx17__normal_iteratorIPSt10unique_ptrI10SensorBaseSt14default_deleteIS2_EESt6vectorIS5_SaIS5_EEE4baseEv
	.p2align	4, 0x90
	.type	_ZNK9__gnu_cxx17__normal_iteratorIPSt10unique_ptrI10SensorBaseSt14default_deleteIS2_EESt6vectorIS5_SaIS5_EEE4baseEv,@function
_ZNK9__gnu_cxx17__normal_iteratorIPSt10unique_ptrI10SensorBaseSt14default_deleteIS2_EESt6vectorIS5_SaIS5_EEE4baseEv: # @_ZNK9__gnu_cxx17__normal_iteratorIPSt10unique_ptrI10SensorBaseSt14default_deleteIS2_EESt6vectorIS5_SaIS5_EEE4baseEv
	.cfi_startproc
# %bb.0:
	pushq	%rbp
	.cfi_def_cfa_offset 16
	.cfi_offset %rbp, -16
	movq	%rsp, %rbp
	.cfi_def_cfa_register %rbp
	movq	%rdi, -8(%rbp)
	movq	-8(%rbp), %rax
	popq	%rbp
	.cfi_def_cfa %rsp, 8
	retq
.Lfunc_end60:
	.size	_ZNK9__gnu_cxx17__normal_iteratorIPSt10unique_ptrI10SensorBaseSt14default_deleteIS2_EESt6vectorIS5_SaIS5_EEE4baseEv, .Lfunc_end60-_ZNK9__gnu_cxx17__normal_iteratorIPSt10unique_ptrI10SensorBaseSt14default_deleteIS2_EESt6vectorIS5_SaIS5_EEE4baseEv
	.cfi_endproc
                                        # -- End function
	.section	.text._ZNSt12_Vector_baseISt10unique_ptrI10SensorBaseSt14default_deleteIS1_EESaIS4_EE19_M_get_Tp_allocatorEv,"axG",@progbits,_ZNSt12_Vector_baseISt10unique_ptrI10SensorBaseSt14default_deleteIS1_EESaIS4_EE19_M_get_Tp_allocatorEv,comdat
	.weak	_ZNSt12_Vector_baseISt10unique_ptrI10SensorBaseSt14default_deleteIS1_EESaIS4_EE19_M_get_Tp_allocatorEv # -- Begin function _ZNSt12_Vector_baseISt10unique_ptrI10SensorBaseSt14default_deleteIS1_EESaIS4_EE19_M_get_Tp_allocatorEv
	.p2align	4, 0x90
	.type	_ZNSt12_Vector_baseISt10unique_ptrI10SensorBaseSt14default_deleteIS1_EESaIS4_EE19_M_get_Tp_allocatorEv,@function
_ZNSt12_Vector_baseISt10unique_ptrI10SensorBaseSt14default_deleteIS1_EESaIS4_EE19_M_get_Tp_allocatorEv: # @_ZNSt12_Vector_baseISt10unique_ptrI10SensorBaseSt14default_deleteIS1_EESaIS4_EE19_M_get_Tp_allocatorEv
	.cfi_startproc
# %bb.0:
	pushq	%rbp
	.cfi_def_cfa_offset 16
	.cfi_offset %rbp, -16
	movq	%rsp, %rbp
	.cfi_def_cfa_register %rbp
	movq	%rdi, -8(%rbp)
	movq	-8(%rbp), %rax
	popq	%rbp
	.cfi_def_cfa %rsp, 8
	retq
.Lfunc_end61:
	.size	_ZNSt12_Vector_baseISt10unique_ptrI10SensorBaseSt14default_deleteIS1_EESaIS4_EE19_M_get_Tp_allocatorEv, .Lfunc_end61-_ZNSt12_Vector_baseISt10unique_ptrI10SensorBaseSt14default_deleteIS1_EESaIS4_EE19_M_get_Tp_allocatorEv
	.cfi_endproc
                                        # -- End function
	.section	.text._ZNSt12_Vector_baseISt10unique_ptrI10SensorBaseSt14default_deleteIS1_EESaIS4_EE13_M_deallocateEPS4_m,"axG",@progbits,_ZNSt12_Vector_baseISt10unique_ptrI10SensorBaseSt14default_deleteIS1_EESaIS4_EE13_M_deallocateEPS4_m,comdat
	.weak	_ZNSt12_Vector_baseISt10unique_ptrI10SensorBaseSt14default_deleteIS1_EESaIS4_EE13_M_deallocateEPS4_m # -- Begin function _ZNSt12_Vector_baseISt10unique_ptrI10SensorBaseSt14default_deleteIS1_EESaIS4_EE13_M_deallocateEPS4_m
	.p2align	4, 0x90
	.type	_ZNSt12_Vector_baseISt10unique_ptrI10SensorBaseSt14default_deleteIS1_EESaIS4_EE13_M_deallocateEPS4_m,@function
_ZNSt12_Vector_baseISt10unique_ptrI10SensorBaseSt14default_deleteIS1_EESaIS4_EE13_M_deallocateEPS4_m: # @_ZNSt12_Vector_baseISt10unique_ptrI10SensorBaseSt14default_deleteIS1_EESaIS4_EE13_M_deallocateEPS4_m
	.cfi_startproc
# %bb.0:
	pushq	%rbp
	.cfi_def_cfa_offset 16
	.cfi_offset %rbp, -16
	movq	%rsp, %rbp
	.cfi_def_cfa_register %rbp
	subq	$80, %rsp
	movq	%rdi, -56(%rbp)
	movq	%rsi, -64(%rbp)
	movq	%rdx, -72(%rbp)
	movq	-56(%rbp), %rax
	movq	%rax, -80(%rbp)                 # 8-byte Spill
	cmpq	$0, -64(%rbp)
	je	.LBB62_2
# %bb.1:
	movq	-80(%rbp), %rdx                 # 8-byte Reload
	movq	-64(%rbp), %rcx
	movq	-72(%rbp), %rax
	movq	%rdx, -32(%rbp)
	movq	%rcx, -40(%rbp)
	movq	%rax, -48(%rbp)
	movq	-32(%rbp), %rdx
	movq	-40(%rbp), %rcx
	movq	-48(%rbp), %rax
	movq	%rdx, -8(%rbp)
	movq	%rcx, -16(%rbp)
	movq	%rax, -24(%rbp)
	movq	-8(%rbp), %rdi
	movq	-16(%rbp), %rsi
	movq	-24(%rbp), %rdx
	callq	_ZNSt15__new_allocatorISt10unique_ptrI10SensorBaseSt14default_deleteIS1_EEE10deallocateEPS4_m
.LBB62_2:
	addq	$80, %rsp
	popq	%rbp
	.cfi_def_cfa %rsp, 8
	retq
.Lfunc_end62:
	.size	_ZNSt12_Vector_baseISt10unique_ptrI10SensorBaseSt14default_deleteIS1_EESaIS4_EE13_M_deallocateEPS4_m, .Lfunc_end62-_ZNSt12_Vector_baseISt10unique_ptrI10SensorBaseSt14default_deleteIS1_EESaIS4_EE13_M_deallocateEPS4_m
	.cfi_endproc
                                        # -- End function
	.section	.text._ZNKSt6vectorISt10unique_ptrI10SensorBaseSt14default_deleteIS1_EESaIS4_EE8max_sizeEv,"axG",@progbits,_ZNKSt6vectorISt10unique_ptrI10SensorBaseSt14default_deleteIS1_EESaIS4_EE8max_sizeEv,comdat
	.weak	_ZNKSt6vectorISt10unique_ptrI10SensorBaseSt14default_deleteIS1_EESaIS4_EE8max_sizeEv # -- Begin function _ZNKSt6vectorISt10unique_ptrI10SensorBaseSt14default_deleteIS1_EESaIS4_EE8max_sizeEv
	.p2align	4, 0x90
	.type	_ZNKSt6vectorISt10unique_ptrI10SensorBaseSt14default_deleteIS1_EESaIS4_EE8max_sizeEv,@function
_ZNKSt6vectorISt10unique_ptrI10SensorBaseSt14default_deleteIS1_EESaIS4_EE8max_sizeEv: # @_ZNKSt6vectorISt10unique_ptrI10SensorBaseSt14default_deleteIS1_EESaIS4_EE8max_sizeEv
	.cfi_startproc
# %bb.0:
	pushq	%rbp
	.cfi_def_cfa_offset 16
	.cfi_offset %rbp, -16
	movq	%rsp, %rbp
	.cfi_def_cfa_register %rbp
	subq	$16, %rsp
	movq	%rdi, -8(%rbp)
	movq	-8(%rbp), %rdi
	callq	_ZNKSt12_Vector_baseISt10unique_ptrI10SensorBaseSt14default_deleteIS1_EESaIS4_EE19_M_get_Tp_allocatorEv
	movq	%rax, %rdi
	callq	_ZNSt6vectorISt10unique_ptrI10SensorBaseSt14default_deleteIS1_EESaIS4_EE11_S_max_sizeERKS5_
	addq	$16, %rsp
	popq	%rbp
	.cfi_def_cfa %rsp, 8
	retq
.Lfunc_end63:
	.size	_ZNKSt6vectorISt10unique_ptrI10SensorBaseSt14default_deleteIS1_EESaIS4_EE8max_sizeEv, .Lfunc_end63-_ZNKSt6vectorISt10unique_ptrI10SensorBaseSt14default_deleteIS1_EESaIS4_EE8max_sizeEv
	.cfi_endproc
                                        # -- End function
	.section	.text._ZNKSt6vectorISt10unique_ptrI10SensorBaseSt14default_deleteIS1_EESaIS4_EE4sizeEv,"axG",@progbits,_ZNKSt6vectorISt10unique_ptrI10SensorBaseSt14default_deleteIS1_EESaIS4_EE4sizeEv,comdat
	.weak	_ZNKSt6vectorISt10unique_ptrI10SensorBaseSt14default_deleteIS1_EESaIS4_EE4sizeEv # -- Begin function _ZNKSt6vectorISt10unique_ptrI10SensorBaseSt14default_deleteIS1_EESaIS4_EE4sizeEv
	.p2align	4, 0x90
	.type	_ZNKSt6vectorISt10unique_ptrI10SensorBaseSt14default_deleteIS1_EESaIS4_EE4sizeEv,@function
_ZNKSt6vectorISt10unique_ptrI10SensorBaseSt14default_deleteIS1_EESaIS4_EE4sizeEv: # @_ZNKSt6vectorISt10unique_ptrI10SensorBaseSt14default_deleteIS1_EESaIS4_EE4sizeEv
	.cfi_startproc
# %bb.0:
	pushq	%rbp
	.cfi_def_cfa_offset 16
	.cfi_offset %rbp, -16
	movq	%rsp, %rbp
	.cfi_def_cfa_register %rbp
	movq	%rdi, -8(%rbp)
	movq	-8(%rbp), %rcx
	movq	8(%rcx), %rax
	movq	(%rcx), %rcx
	subq	%rcx, %rax
	sarq	$3, %rax
	popq	%rbp
	.cfi_def_cfa %rsp, 8
	retq
.Lfunc_end64:
	.size	_ZNKSt6vectorISt10unique_ptrI10SensorBaseSt14default_deleteIS1_EESaIS4_EE4sizeEv, .Lfunc_end64-_ZNKSt6vectorISt10unique_ptrI10SensorBaseSt14default_deleteIS1_EESaIS4_EE4sizeEv
	.cfi_endproc
                                        # -- End function
	.section	.text._ZSt3maxImERKT_S2_S2_,"axG",@progbits,_ZSt3maxImERKT_S2_S2_,comdat
	.weak	_ZSt3maxImERKT_S2_S2_           # -- Begin function _ZSt3maxImERKT_S2_S2_
	.p2align	4, 0x90
	.type	_ZSt3maxImERKT_S2_S2_,@function
_ZSt3maxImERKT_S2_S2_:                  # @_ZSt3maxImERKT_S2_S2_
	.cfi_startproc
# %bb.0:
	pushq	%rbp
	.cfi_def_cfa_offset 16
	.cfi_offset %rbp, -16
	movq	%rsp, %rbp
	.cfi_def_cfa_register %rbp
	movq	%rdi, -16(%rbp)
	movq	%rsi, -24(%rbp)
	movq	-16(%rbp), %rax
	movq	(%rax), %rax
	movq	-24(%rbp), %rcx
	cmpq	(%rcx), %rax
	jae	.LBB65_2
# %bb.1:
	movq	-24(%rbp), %rax
	movq	%rax, -8(%rbp)
	jmp	.LBB65_3
.LBB65_2:
	movq	-16(%rbp), %rax
	movq	%rax, -8(%rbp)
.LBB65_3:
	movq	-8(%rbp), %rax
	popq	%rbp
	.cfi_def_cfa %rsp, 8
	retq
.Lfunc_end65:
	.size	_ZSt3maxImERKT_S2_S2_, .Lfunc_end65-_ZSt3maxImERKT_S2_S2_
	.cfi_endproc
                                        # -- End function
	.section	.text._ZNSt6vectorISt10unique_ptrI10SensorBaseSt14default_deleteIS1_EESaIS4_EE11_S_max_sizeERKS5_,"axG",@progbits,_ZNSt6vectorISt10unique_ptrI10SensorBaseSt14default_deleteIS1_EESaIS4_EE11_S_max_sizeERKS5_,comdat
	.weak	_ZNSt6vectorISt10unique_ptrI10SensorBaseSt14default_deleteIS1_EESaIS4_EE11_S_max_sizeERKS5_ # -- Begin function _ZNSt6vectorISt10unique_ptrI10SensorBaseSt14default_deleteIS1_EESaIS4_EE11_S_max_sizeERKS5_
	.p2align	4, 0x90
	.type	_ZNSt6vectorISt10unique_ptrI10SensorBaseSt14default_deleteIS1_EESaIS4_EE11_S_max_sizeERKS5_,@function
_ZNSt6vectorISt10unique_ptrI10SensorBaseSt14default_deleteIS1_EESaIS4_EE11_S_max_sizeERKS5_: # @_ZNSt6vectorISt10unique_ptrI10SensorBaseSt14default_deleteIS1_EESaIS4_EE11_S_max_sizeERKS5_
.Lfunc_begin18:
	.cfi_startproc
	.cfi_personality 155, DW.ref.__gxx_personality_v0
	.cfi_lsda 27, .Lexception18
# %bb.0:
	pushq	%rbp
	.cfi_def_cfa_offset 16
	.cfi_offset %rbp, -16
	movq	%rsp, %rbp
	.cfi_def_cfa_register %rbp
	subq	$48, %rsp
	movq	%rdi, -16(%rbp)
	movabsq	$1152921504606846975, %rax      # imm = 0xFFFFFFFFFFFFFFF
	movq	%rax, -24(%rbp)
	movq	-16(%rbp), %rax
	movq	%rax, -8(%rbp)
	movabsq	$2305843009213693951, %rax      # imm = 0x1FFFFFFFFFFFFFFF
	movq	%rax, -32(%rbp)
.Ltmp120:
	leaq	-24(%rbp), %rdi
	leaq	-32(%rbp), %rsi
	callq	_ZSt3minImERKT_S2_S2_
.Ltmp121:
	movq	%rax, -40(%rbp)                 # 8-byte Spill
	jmp	.LBB66_1
.LBB66_1:
	movq	-40(%rbp), %rax                 # 8-byte Reload
	movq	(%rax), %rax
	addq	$48, %rsp
	popq	%rbp
	.cfi_def_cfa %rsp, 8
	retq
.LBB66_2:
	.cfi_def_cfa %rbp, 16
.Ltmp122:
	movq	%rax, %rdi
                                        # kill: def $eax killed $edx killed $rdx
	callq	__clang_call_terminate
.Lfunc_end66:
	.size	_ZNSt6vectorISt10unique_ptrI10SensorBaseSt14default_deleteIS1_EESaIS4_EE11_S_max_sizeERKS5_, .Lfunc_end66-_ZNSt6vectorISt10unique_ptrI10SensorBaseSt14default_deleteIS1_EESaIS4_EE11_S_max_sizeERKS5_
	.cfi_endproc
	.section	.gcc_except_table._ZNSt6vectorISt10unique_ptrI10SensorBaseSt14default_deleteIS1_EESaIS4_EE11_S_max_sizeERKS5_,"aG",@progbits,_ZNSt6vectorISt10unique_ptrI10SensorBaseSt14default_deleteIS1_EESaIS4_EE11_S_max_sizeERKS5_,comdat
	.p2align	2
GCC_except_table66:
.Lexception18:
	.byte	255                             # @LPStart Encoding = omit
	.byte	155                             # @TType Encoding = indirect pcrel sdata4
	.uleb128 .Lttbase11-.Lttbaseref11
.Lttbaseref11:
	.byte	1                               # Call site Encoding = uleb128
	.uleb128 .Lcst_end18-.Lcst_begin18
.Lcst_begin18:
	.uleb128 .Ltmp120-.Lfunc_begin18        # >> Call Site 1 <<
	.uleb128 .Ltmp121-.Ltmp120              #   Call between .Ltmp120 and .Ltmp121
	.uleb128 .Ltmp122-.Lfunc_begin18        #     jumps to .Ltmp122
	.byte	1                               #   On action: 1
.Lcst_end18:
	.byte	1                               # >> Action Record 1 <<
                                        #   Catch TypeInfo 1
	.byte	0                               #   No further actions
	.p2align	2
                                        # >> Catch TypeInfos <<
	.long	0                               # TypeInfo 1
.Lttbase11:
	.p2align	2
                                        # -- End function
	.section	.text._ZNKSt12_Vector_baseISt10unique_ptrI10SensorBaseSt14default_deleteIS1_EESaIS4_EE19_M_get_Tp_allocatorEv,"axG",@progbits,_ZNKSt12_Vector_baseISt10unique_ptrI10SensorBaseSt14default_deleteIS1_EESaIS4_EE19_M_get_Tp_allocatorEv,comdat
	.weak	_ZNKSt12_Vector_baseISt10unique_ptrI10SensorBaseSt14default_deleteIS1_EESaIS4_EE19_M_get_Tp_allocatorEv # -- Begin function _ZNKSt12_Vector_baseISt10unique_ptrI10SensorBaseSt14default_deleteIS1_EESaIS4_EE19_M_get_Tp_allocatorEv
	.p2align	4, 0x90
	.type	_ZNKSt12_Vector_baseISt10unique_ptrI10SensorBaseSt14default_deleteIS1_EESaIS4_EE19_M_get_Tp_allocatorEv,@function
_ZNKSt12_Vector_baseISt10unique_ptrI10SensorBaseSt14default_deleteIS1_EESaIS4_EE19_M_get_Tp_allocatorEv: # @_ZNKSt12_Vector_baseISt10unique_ptrI10SensorBaseSt14default_deleteIS1_EESaIS4_EE19_M_get_Tp_allocatorEv
	.cfi_startproc
# %bb.0:
	pushq	%rbp
	.cfi_def_cfa_offset 16
	.cfi_offset %rbp, -16
	movq	%rsp, %rbp
	.cfi_def_cfa_register %rbp
	movq	%rdi, -8(%rbp)
	movq	-8(%rbp), %rax
	popq	%rbp
	.cfi_def_cfa %rsp, 8
	retq
.Lfunc_end67:
	.size	_ZNKSt12_Vector_baseISt10unique_ptrI10SensorBaseSt14default_deleteIS1_EESaIS4_EE19_M_get_Tp_allocatorEv, .Lfunc_end67-_ZNKSt12_Vector_baseISt10unique_ptrI10SensorBaseSt14default_deleteIS1_EESaIS4_EE19_M_get_Tp_allocatorEv
	.cfi_endproc
                                        # -- End function
	.section	.text._ZSt3minImERKT_S2_S2_,"axG",@progbits,_ZSt3minImERKT_S2_S2_,comdat
	.weak	_ZSt3minImERKT_S2_S2_           # -- Begin function _ZSt3minImERKT_S2_S2_
	.p2align	4, 0x90
	.type	_ZSt3minImERKT_S2_S2_,@function
_ZSt3minImERKT_S2_S2_:                  # @_ZSt3minImERKT_S2_S2_
	.cfi_startproc
# %bb.0:
	pushq	%rbp
	.cfi_def_cfa_offset 16
	.cfi_offset %rbp, -16
	movq	%rsp, %rbp
	.cfi_def_cfa_register %rbp
	movq	%rdi, -16(%rbp)
	movq	%rsi, -24(%rbp)
	movq	-24(%rbp), %rax
	movq	(%rax), %rax
	movq	-16(%rbp), %rcx
	cmpq	(%rcx), %rax
	jae	.LBB68_2
# %bb.1:
	movq	-24(%rbp), %rax
	movq	%rax, -8(%rbp)
	jmp	.LBB68_3
.LBB68_2:
	movq	-16(%rbp), %rax
	movq	%rax, -8(%rbp)
.LBB68_3:
	movq	-8(%rbp), %rax
	popq	%rbp
	.cfi_def_cfa %rsp, 8
	retq
.Lfunc_end68:
	.size	_ZSt3minImERKT_S2_S2_, .Lfunc_end68-_ZSt3minImERKT_S2_S2_
	.cfi_endproc
                                        # -- End function
	.section	.text.__clang_call_terminate,"axG",@progbits,__clang_call_terminate,comdat
	.hidden	__clang_call_terminate          # -- Begin function __clang_call_terminate
	.weak	__clang_call_terminate
	.p2align	4, 0x90
	.type	__clang_call_terminate,@function
__clang_call_terminate:                 # @__clang_call_terminate
# %bb.0:
	pushq	%rax
	callq	__cxa_begin_catch@PLT
	callq	_ZSt9terminatev@PLT
.Lfunc_end69:
	.size	__clang_call_terminate, .Lfunc_end69-__clang_call_terminate
                                        # -- End function
	.section	.text._ZN9__gnu_cxx17__normal_iteratorIPSt10unique_ptrI10SensorBaseSt14default_deleteIS2_EESt6vectorIS5_SaIS5_EEEC2ERKS6_,"axG",@progbits,_ZN9__gnu_cxx17__normal_iteratorIPSt10unique_ptrI10SensorBaseSt14default_deleteIS2_EESt6vectorIS5_SaIS5_EEEC2ERKS6_,comdat
	.weak	_ZN9__gnu_cxx17__normal_iteratorIPSt10unique_ptrI10SensorBaseSt14default_deleteIS2_EESt6vectorIS5_SaIS5_EEEC2ERKS6_ # -- Begin function _ZN9__gnu_cxx17__normal_iteratorIPSt10unique_ptrI10SensorBaseSt14default_deleteIS2_EESt6vectorIS5_SaIS5_EEEC2ERKS6_
	.p2align	4, 0x90
	.type	_ZN9__gnu_cxx17__normal_iteratorIPSt10unique_ptrI10SensorBaseSt14default_deleteIS2_EESt6vectorIS5_SaIS5_EEEC2ERKS6_,@function
_ZN9__gnu_cxx17__normal_iteratorIPSt10unique_ptrI10SensorBaseSt14default_deleteIS2_EESt6vectorIS5_SaIS5_EEEC2ERKS6_: # @_ZN9__gnu_cxx17__normal_iteratorIPSt10unique_ptrI10SensorBaseSt14default_deleteIS2_EESt6vectorIS5_SaIS5_EEEC2ERKS6_
	.cfi_startproc
# %bb.0:
	pushq	%rbp
	.cfi_def_cfa_offset 16
	.cfi_offset %rbp, -16
	movq	%rsp, %rbp
	.cfi_def_cfa_register %rbp
	movq	%rdi, -8(%rbp)
	movq	%rsi, -16(%rbp)
	movq	-8(%rbp), %rax
	movq	-16(%rbp), %rcx
	movq	(%rcx), %rcx
	movq	%rcx, (%rax)
	popq	%rbp
	.cfi_def_cfa %rsp, 8
	retq
.Lfunc_end70:
	.size	_ZN9__gnu_cxx17__normal_iteratorIPSt10unique_ptrI10SensorBaseSt14default_deleteIS2_EESt6vectorIS5_SaIS5_EEEC2ERKS6_, .Lfunc_end70-_ZN9__gnu_cxx17__normal_iteratorIPSt10unique_ptrI10SensorBaseSt14default_deleteIS2_EESt6vectorIS5_SaIS5_EEEC2ERKS6_
	.cfi_endproc
                                        # -- End function
	.section	.text._ZNSt15__new_allocatorISt10unique_ptrI10SensorBaseSt14default_deleteIS1_EEE8allocateEmPKv,"axG",@progbits,_ZNSt15__new_allocatorISt10unique_ptrI10SensorBaseSt14default_deleteIS1_EEE8allocateEmPKv,comdat
	.weak	_ZNSt15__new_allocatorISt10unique_ptrI10SensorBaseSt14default_deleteIS1_EEE8allocateEmPKv # -- Begin function _ZNSt15__new_allocatorISt10unique_ptrI10SensorBaseSt14default_deleteIS1_EEE8allocateEmPKv
	.p2align	4, 0x90
	.type	_ZNSt15__new_allocatorISt10unique_ptrI10SensorBaseSt14default_deleteIS1_EEE8allocateEmPKv,@function
_ZNSt15__new_allocatorISt10unique_ptrI10SensorBaseSt14default_deleteIS1_EEE8allocateEmPKv: # @_ZNSt15__new_allocatorISt10unique_ptrI10SensorBaseSt14default_deleteIS1_EEE8allocateEmPKv
	.cfi_startproc
# %bb.0:
	pushq	%rbp
	.cfi_def_cfa_offset 16
	.cfi_offset %rbp, -16
	movq	%rsp, %rbp
	.cfi_def_cfa_register %rbp
	subq	$32, %rsp
	movq	%rdi, -16(%rbp)
	movq	%rsi, -24(%rbp)
	movq	%rdx, -32(%rbp)
	movq	-16(%rbp), %rcx
	movq	-24(%rbp), %rax
	movq	%rcx, -8(%rbp)
	movabsq	$1152921504606846975, %rcx      # imm = 0xFFFFFFFFFFFFFFF
	cmpq	%rcx, %rax
	jbe	.LBB71_4
# %bb.1:
	movabsq	$2305843009213693951, %rax      # imm = 0x1FFFFFFFFFFFFFFF
	cmpq	%rax, -24(%rbp)
	jbe	.LBB71_3
# %bb.2:
	callq	_ZSt28__throw_bad_array_new_lengthv@PLT
.LBB71_3:
	callq	_ZSt17__throw_bad_allocv@PLT
.LBB71_4:
	movq	-24(%rbp), %rdi
	shlq	$3, %rdi
	callq	_Znwm@PLT
	addq	$32, %rsp
	popq	%rbp
	.cfi_def_cfa %rsp, 8
	retq
.Lfunc_end71:
	.size	_ZNSt15__new_allocatorISt10unique_ptrI10SensorBaseSt14default_deleteIS1_EEE8allocateEmPKv, .Lfunc_end71-_ZNSt15__new_allocatorISt10unique_ptrI10SensorBaseSt14default_deleteIS1_EEE8allocateEmPKv
	.cfi_endproc
                                        # -- End function
	.section	.text._ZSt12__relocate_aIPSt10unique_ptrI10SensorBaseSt14default_deleteIS1_EES5_SaIS4_EET0_T_S8_S7_RT1_,"axG",@progbits,_ZSt12__relocate_aIPSt10unique_ptrI10SensorBaseSt14default_deleteIS1_EES5_SaIS4_EET0_T_S8_S7_RT1_,comdat
	.weak	_ZSt12__relocate_aIPSt10unique_ptrI10SensorBaseSt14default_deleteIS1_EES5_SaIS4_EET0_T_S8_S7_RT1_ # -- Begin function _ZSt12__relocate_aIPSt10unique_ptrI10SensorBaseSt14default_deleteIS1_EES5_SaIS4_EET0_T_S8_S7_RT1_
	.p2align	4, 0x90
	.type	_ZSt12__relocate_aIPSt10unique_ptrI10SensorBaseSt14default_deleteIS1_EES5_SaIS4_EET0_T_S8_S7_RT1_,@function
_ZSt12__relocate_aIPSt10unique_ptrI10SensorBaseSt14default_deleteIS1_EES5_SaIS4_EET0_T_S8_S7_RT1_: # @_ZSt12__relocate_aIPSt10unique_ptrI10SensorBaseSt14default_deleteIS1_EES5_SaIS4_EET0_T_S8_S7_RT1_
	.cfi_startproc
# %bb.0:
	pushq	%rbp
	.cfi_def_cfa_offset 16
	.cfi_offset %rbp, -16
	movq	%rsp, %rbp
	.cfi_def_cfa_register %rbp
	subq	$48, %rsp
	movq	%rdi, -8(%rbp)
	movq	%rsi, -16(%rbp)
	movq	%rdx, -24(%rbp)
	movq	%rcx, -32(%rbp)
	movq	-8(%rbp), %rdi
	callq	_ZSt12__niter_baseIPSt10unique_ptrI10SensorBaseSt14default_deleteIS1_EEET_S6_
	movq	%rax, -48(%rbp)                 # 8-byte Spill
	movq	-16(%rbp), %rdi
	callq	_ZSt12__niter_baseIPSt10unique_ptrI10SensorBaseSt14default_deleteIS1_EEET_S6_
	movq	%rax, -40(%rbp)                 # 8-byte Spill
	movq	-24(%rbp), %rdi
	callq	_ZSt12__niter_baseIPSt10unique_ptrI10SensorBaseSt14default_deleteIS1_EEET_S6_
	movq	-48(%rbp), %rdi                 # 8-byte Reload
	movq	-40(%rbp), %rsi                 # 8-byte Reload
	movq	%rax, %rdx
	movq	-32(%rbp), %rcx
	callq	_ZSt14__relocate_a_1IPSt10unique_ptrI10SensorBaseSt14default_deleteIS1_EES5_SaIS4_EET0_T_S8_S7_RT1_
	addq	$48, %rsp
	popq	%rbp
	.cfi_def_cfa %rsp, 8
	retq
.Lfunc_end72:
	.size	_ZSt12__relocate_aIPSt10unique_ptrI10SensorBaseSt14default_deleteIS1_EES5_SaIS4_EET0_T_S8_S7_RT1_, .Lfunc_end72-_ZSt12__relocate_aIPSt10unique_ptrI10SensorBaseSt14default_deleteIS1_EES5_SaIS4_EET0_T_S8_S7_RT1_
	.cfi_endproc
                                        # -- End function
	.section	.text._ZSt14__relocate_a_1IPSt10unique_ptrI10SensorBaseSt14default_deleteIS1_EES5_SaIS4_EET0_T_S8_S7_RT1_,"axG",@progbits,_ZSt14__relocate_a_1IPSt10unique_ptrI10SensorBaseSt14default_deleteIS1_EES5_SaIS4_EET0_T_S8_S7_RT1_,comdat
	.weak	_ZSt14__relocate_a_1IPSt10unique_ptrI10SensorBaseSt14default_deleteIS1_EES5_SaIS4_EET0_T_S8_S7_RT1_ # -- Begin function _ZSt14__relocate_a_1IPSt10unique_ptrI10SensorBaseSt14default_deleteIS1_EES5_SaIS4_EET0_T_S8_S7_RT1_
	.p2align	4, 0x90
	.type	_ZSt14__relocate_a_1IPSt10unique_ptrI10SensorBaseSt14default_deleteIS1_EES5_SaIS4_EET0_T_S8_S7_RT1_,@function
_ZSt14__relocate_a_1IPSt10unique_ptrI10SensorBaseSt14default_deleteIS1_EES5_SaIS4_EET0_T_S8_S7_RT1_: # @_ZSt14__relocate_a_1IPSt10unique_ptrI10SensorBaseSt14default_deleteIS1_EES5_SaIS4_EET0_T_S8_S7_RT1_
	.cfi_startproc
# %bb.0:
	pushq	%rbp
	.cfi_def_cfa_offset 16
	.cfi_offset %rbp, -16
	movq	%rsp, %rbp
	.cfi_def_cfa_register %rbp
	subq	$48, %rsp
	movq	%rdi, -8(%rbp)
	movq	%rsi, -16(%rbp)
	movq	%rdx, -24(%rbp)
	movq	%rcx, -32(%rbp)
	movq	-24(%rbp), %rax
	movq	%rax, -40(%rbp)
.LBB73_1:                               # =>This Inner Loop Header: Depth=1
	movq	-8(%rbp), %rax
	cmpq	-16(%rbp), %rax
	je	.LBB73_4
# %bb.2:                                #   in Loop: Header=BB73_1 Depth=1
	movq	-40(%rbp), %rdi
	callq	_ZSt11__addressofISt10unique_ptrI10SensorBaseSt14default_deleteIS1_EEEPT_RS5_
	movq	%rax, -48(%rbp)                 # 8-byte Spill
	movq	-8(%rbp), %rdi
	callq	_ZSt11__addressofISt10unique_ptrI10SensorBaseSt14default_deleteIS1_EEEPT_RS5_
	movq	-48(%rbp), %rdi                 # 8-byte Reload
	movq	%rax, %rsi
	movq	-32(%rbp), %rdx
	callq	_ZSt19__relocate_object_aISt10unique_ptrI10SensorBaseSt14default_deleteIS1_EES4_SaIS4_EEvPT_PT0_RT1_
# %bb.3:                                #   in Loop: Header=BB73_1 Depth=1
	movq	-8(%rbp), %rax
	addq	$8, %rax
	movq	%rax, -8(%rbp)
	movq	-40(%rbp), %rax
	addq	$8, %rax
	movq	%rax, -40(%rbp)
	jmp	.LBB73_1
.LBB73_4:
	movq	-40(%rbp), %rax
	addq	$48, %rsp
	popq	%rbp
	.cfi_def_cfa %rsp, 8
	retq
.Lfunc_end73:
	.size	_ZSt14__relocate_a_1IPSt10unique_ptrI10SensorBaseSt14default_deleteIS1_EES5_SaIS4_EET0_T_S8_S7_RT1_, .Lfunc_end73-_ZSt14__relocate_a_1IPSt10unique_ptrI10SensorBaseSt14default_deleteIS1_EES5_SaIS4_EET0_T_S8_S7_RT1_
	.cfi_endproc
                                        # -- End function
	.section	.text._ZSt12__niter_baseIPSt10unique_ptrI10SensorBaseSt14default_deleteIS1_EEET_S6_,"axG",@progbits,_ZSt12__niter_baseIPSt10unique_ptrI10SensorBaseSt14default_deleteIS1_EEET_S6_,comdat
	.weak	_ZSt12__niter_baseIPSt10unique_ptrI10SensorBaseSt14default_deleteIS1_EEET_S6_ # -- Begin function _ZSt12__niter_baseIPSt10unique_ptrI10SensorBaseSt14default_deleteIS1_EEET_S6_
	.p2align	4, 0x90
	.type	_ZSt12__niter_baseIPSt10unique_ptrI10SensorBaseSt14default_deleteIS1_EEET_S6_,@function
_ZSt12__niter_baseIPSt10unique_ptrI10SensorBaseSt14default_deleteIS1_EEET_S6_: # @_ZSt12__niter_baseIPSt10unique_ptrI10SensorBaseSt14default_deleteIS1_EEET_S6_
	.cfi_startproc
# %bb.0:
	pushq	%rbp
	.cfi_def_cfa_offset 16
	.cfi_offset %rbp, -16
	movq	%rsp, %rbp
	.cfi_def_cfa_register %rbp
	movq	%rdi, -8(%rbp)
	movq	-8(%rbp), %rax
	popq	%rbp
	.cfi_def_cfa %rsp, 8
	retq
.Lfunc_end74:
	.size	_ZSt12__niter_baseIPSt10unique_ptrI10SensorBaseSt14default_deleteIS1_EEET_S6_, .Lfunc_end74-_ZSt12__niter_baseIPSt10unique_ptrI10SensorBaseSt14default_deleteIS1_EEET_S6_
	.cfi_endproc
                                        # -- End function
	.section	.text._ZSt19__relocate_object_aISt10unique_ptrI10SensorBaseSt14default_deleteIS1_EES4_SaIS4_EEvPT_PT0_RT1_,"axG",@progbits,_ZSt19__relocate_object_aISt10unique_ptrI10SensorBaseSt14default_deleteIS1_EES4_SaIS4_EEvPT_PT0_RT1_,comdat
	.weak	_ZSt19__relocate_object_aISt10unique_ptrI10SensorBaseSt14default_deleteIS1_EES4_SaIS4_EEvPT_PT0_RT1_ # -- Begin function _ZSt19__relocate_object_aISt10unique_ptrI10SensorBaseSt14default_deleteIS1_EES4_SaIS4_EEvPT_PT0_RT1_
	.p2align	4, 0x90
	.type	_ZSt19__relocate_object_aISt10unique_ptrI10SensorBaseSt14default_deleteIS1_EES4_SaIS4_EEvPT_PT0_RT1_,@function
_ZSt19__relocate_object_aISt10unique_ptrI10SensorBaseSt14default_deleteIS1_EES4_SaIS4_EEvPT_PT0_RT1_: # @_ZSt19__relocate_object_aISt10unique_ptrI10SensorBaseSt14default_deleteIS1_EES4_SaIS4_EEvPT_PT0_RT1_
.Lfunc_begin19:
	.cfi_startproc
	.cfi_personality 155, DW.ref.__gxx_personality_v0
	.cfi_lsda 27, .Lexception19
# %bb.0:
	pushq	%rbp
	.cfi_def_cfa_offset 16
	.cfi_offset %rbp, -16
	movq	%rsp, %rbp
	.cfi_def_cfa_register %rbp
	subq	$96, %rsp
	movq	%rdi, -48(%rbp)
	movq	%rsi, -56(%rbp)
	movq	%rdx, -64(%rbp)
	movq	-64(%rbp), %rax
	movq	%rax, -96(%rbp)                 # 8-byte Spill
	movq	-48(%rbp), %rax
	movq	%rax, -88(%rbp)                 # 8-byte Spill
	movq	-56(%rbp), %rdi
	callq	_ZSt4moveIRSt10unique_ptrI10SensorBaseSt14default_deleteIS1_EEEONSt16remove_referenceIT_E4typeEOS7_
	movq	-96(%rbp), %rdx                 # 8-byte Reload
	movq	-88(%rbp), %rcx                 # 8-byte Reload
	movq	%rdx, -24(%rbp)
	movq	%rcx, -32(%rbp)
	movq	%rax, -40(%rbp)
	movq	-32(%rbp), %rax
	movq	%rax, -80(%rbp)                 # 8-byte Spill
	movq	-40(%rbp), %rdi
	callq	_ZSt7forwardISt10unique_ptrI10SensorBaseSt14default_deleteIS1_EEEOT_RNSt16remove_referenceIS5_E4typeE
	movq	-80(%rbp), %rdi                 # 8-byte Reload
	movq	%rax, %rsi
	callq	_ZSt12construct_atISt10unique_ptrI10SensorBaseSt14default_deleteIS1_EEJS4_EEDTgsnwcvPvLi0E_T_pispclsr3stdE7declvalIT0_EEEEPS6_DpOS7_
	movq	-64(%rbp), %rax
	movq	%rax, -72(%rbp)                 # 8-byte Spill
	movq	-56(%rbp), %rdi
	callq	_ZSt11__addressofISt10unique_ptrI10SensorBaseSt14default_deleteIS1_EEEPT_RS5_
	movq	-72(%rbp), %rcx                 # 8-byte Reload
	movq	%rcx, -8(%rbp)
	movq	%rax, -16(%rbp)
	movq	-16(%rbp), %rdi
.Ltmp123:
	callq	_ZSt10destroy_atISt10unique_ptrI10SensorBaseSt14default_deleteIS1_EEEvPT_
.Ltmp124:
	jmp	.LBB75_2
.LBB75_1:
.Ltmp125:
	movq	%rax, %rdi
                                        # kill: def $eax killed $edx killed $rdx
	callq	__clang_call_terminate
.LBB75_2:
	addq	$96, %rsp
	popq	%rbp
	.cfi_def_cfa %rsp, 8
	retq
.Lfunc_end75:
	.size	_ZSt19__relocate_object_aISt10unique_ptrI10SensorBaseSt14default_deleteIS1_EES4_SaIS4_EEvPT_PT0_RT1_, .Lfunc_end75-_ZSt19__relocate_object_aISt10unique_ptrI10SensorBaseSt14default_deleteIS1_EES4_SaIS4_EEvPT_PT0_RT1_
	.cfi_endproc
	.section	.gcc_except_table._ZSt19__relocate_object_aISt10unique_ptrI10SensorBaseSt14default_deleteIS1_EES4_SaIS4_EEvPT_PT0_RT1_,"aG",@progbits,_ZSt19__relocate_object_aISt10unique_ptrI10SensorBaseSt14default_deleteIS1_EES4_SaIS4_EEvPT_PT0_RT1_,comdat
	.p2align	2
GCC_except_table75:
.Lexception19:
	.byte	255                             # @LPStart Encoding = omit
	.byte	155                             # @TType Encoding = indirect pcrel sdata4
	.uleb128 .Lttbase12-.Lttbaseref12
.Lttbaseref12:
	.byte	1                               # Call site Encoding = uleb128
	.uleb128 .Lcst_end19-.Lcst_begin19
.Lcst_begin19:
	.uleb128 .Ltmp123-.Lfunc_begin19        # >> Call Site 1 <<
	.uleb128 .Ltmp124-.Ltmp123              #   Call between .Ltmp123 and .Ltmp124
	.uleb128 .Ltmp125-.Lfunc_begin19        #     jumps to .Ltmp125
	.byte	1                               #   On action: 1
.Lcst_end19:
	.byte	1                               # >> Action Record 1 <<
                                        #   Catch TypeInfo 1
	.byte	0                               #   No further actions
	.p2align	2
                                        # >> Catch TypeInfos <<
	.long	0                               # TypeInfo 1
.Lttbase12:
	.p2align	2
                                        # -- End function
	.section	.text._ZSt11__addressofISt10unique_ptrI10SensorBaseSt14default_deleteIS1_EEEPT_RS5_,"axG",@progbits,_ZSt11__addressofISt10unique_ptrI10SensorBaseSt14default_deleteIS1_EEEPT_RS5_,comdat
	.weak	_ZSt11__addressofISt10unique_ptrI10SensorBaseSt14default_deleteIS1_EEEPT_RS5_ # -- Begin function _ZSt11__addressofISt10unique_ptrI10SensorBaseSt14default_deleteIS1_EEEPT_RS5_
	.p2align	4, 0x90
	.type	_ZSt11__addressofISt10unique_ptrI10SensorBaseSt14default_deleteIS1_EEEPT_RS5_,@function
_ZSt11__addressofISt10unique_ptrI10SensorBaseSt14default_deleteIS1_EEEPT_RS5_: # @_ZSt11__addressofISt10unique_ptrI10SensorBaseSt14default_deleteIS1_EEEPT_RS5_
	.cfi_startproc
# %bb.0:
	pushq	%rbp
	.cfi_def_cfa_offset 16
	.cfi_offset %rbp, -16
	movq	%rsp, %rbp
	.cfi_def_cfa_register %rbp
	movq	%rdi, -8(%rbp)
	movq	-8(%rbp), %rax
	popq	%rbp
	.cfi_def_cfa %rsp, 8
	retq
.Lfunc_end76:
	.size	_ZSt11__addressofISt10unique_ptrI10SensorBaseSt14default_deleteIS1_EEEPT_RS5_, .Lfunc_end76-_ZSt11__addressofISt10unique_ptrI10SensorBaseSt14default_deleteIS1_EEEPT_RS5_
	.cfi_endproc
                                        # -- End function
	.section	.text._ZSt10destroy_atISt10unique_ptrI10SensorBaseSt14default_deleteIS1_EEEvPT_,"axG",@progbits,_ZSt10destroy_atISt10unique_ptrI10SensorBaseSt14default_deleteIS1_EEEvPT_,comdat
	.weak	_ZSt10destroy_atISt10unique_ptrI10SensorBaseSt14default_deleteIS1_EEEvPT_ # -- Begin function _ZSt10destroy_atISt10unique_ptrI10SensorBaseSt14default_deleteIS1_EEEvPT_
	.p2align	4, 0x90
	.type	_ZSt10destroy_atISt10unique_ptrI10SensorBaseSt14default_deleteIS1_EEEvPT_,@function
_ZSt10destroy_atISt10unique_ptrI10SensorBaseSt14default_deleteIS1_EEEvPT_: # @_ZSt10destroy_atISt10unique_ptrI10SensorBaseSt14default_deleteIS1_EEEvPT_
	.cfi_startproc
# %bb.0:
	pushq	%rbp
	.cfi_def_cfa_offset 16
	.cfi_offset %rbp, -16
	movq	%rsp, %rbp
	.cfi_def_cfa_register %rbp
	subq	$16, %rsp
	movq	%rdi, -8(%rbp)
	movq	-8(%rbp), %rdi
	callq	_ZNSt10unique_ptrI10SensorBaseSt14default_deleteIS0_EED2Ev
	addq	$16, %rsp
	popq	%rbp
	.cfi_def_cfa %rsp, 8
	retq
.Lfunc_end77:
	.size	_ZSt10destroy_atISt10unique_ptrI10SensorBaseSt14default_deleteIS1_EEEvPT_, .Lfunc_end77-_ZSt10destroy_atISt10unique_ptrI10SensorBaseSt14default_deleteIS1_EEEvPT_
	.cfi_endproc
                                        # -- End function
	.section	.text._ZNSt15__new_allocatorISt10unique_ptrI10SensorBaseSt14default_deleteIS1_EEE10deallocateEPS4_m,"axG",@progbits,_ZNSt15__new_allocatorISt10unique_ptrI10SensorBaseSt14default_deleteIS1_EEE10deallocateEPS4_m,comdat
	.weak	_ZNSt15__new_allocatorISt10unique_ptrI10SensorBaseSt14default_deleteIS1_EEE10deallocateEPS4_m # -- Begin function _ZNSt15__new_allocatorISt10unique_ptrI10SensorBaseSt14default_deleteIS1_EEE10deallocateEPS4_m
	.p2align	4, 0x90
	.type	_ZNSt15__new_allocatorISt10unique_ptrI10SensorBaseSt14default_deleteIS1_EEE10deallocateEPS4_m,@function
_ZNSt15__new_allocatorISt10unique_ptrI10SensorBaseSt14default_deleteIS1_EEE10deallocateEPS4_m: # @_ZNSt15__new_allocatorISt10unique_ptrI10SensorBaseSt14default_deleteIS1_EEE10deallocateEPS4_m
	.cfi_startproc
# %bb.0:
	pushq	%rbp
	.cfi_def_cfa_offset 16
	.cfi_offset %rbp, -16
	movq	%rsp, %rbp
	.cfi_def_cfa_register %rbp
	subq	$32, %rsp
	movq	%rdi, -8(%rbp)
	movq	%rsi, -16(%rbp)
	movq	%rdx, -24(%rbp)
	movq	-16(%rbp), %rdi
	callq	_ZdlPv@PLT
	addq	$32, %rsp
	popq	%rbp
	.cfi_def_cfa %rsp, 8
	retq
.Lfunc_end78:
	.size	_ZNSt15__new_allocatorISt10unique_ptrI10SensorBaseSt14default_deleteIS1_EEE10deallocateEPS4_m, .Lfunc_end78-_ZNSt15__new_allocatorISt10unique_ptrI10SensorBaseSt14default_deleteIS1_EEE10deallocateEPS4_m
	.cfi_endproc
                                        # -- End function
	.section	.text._ZNK9__gnu_cxx17__normal_iteratorIPSt10unique_ptrI10SensorBaseSt14default_deleteIS2_EESt6vectorIS5_SaIS5_EEEmiEl,"axG",@progbits,_ZNK9__gnu_cxx17__normal_iteratorIPSt10unique_ptrI10SensorBaseSt14default_deleteIS2_EESt6vectorIS5_SaIS5_EEEmiEl,comdat
	.weak	_ZNK9__gnu_cxx17__normal_iteratorIPSt10unique_ptrI10SensorBaseSt14default_deleteIS2_EESt6vectorIS5_SaIS5_EEEmiEl # -- Begin function _ZNK9__gnu_cxx17__normal_iteratorIPSt10unique_ptrI10SensorBaseSt14default_deleteIS2_EESt6vectorIS5_SaIS5_EEEmiEl
	.p2align	4, 0x90
	.type	_ZNK9__gnu_cxx17__normal_iteratorIPSt10unique_ptrI10SensorBaseSt14default_deleteIS2_EESt6vectorIS5_SaIS5_EEEmiEl,@function
_ZNK9__gnu_cxx17__normal_iteratorIPSt10unique_ptrI10SensorBaseSt14default_deleteIS2_EESt6vectorIS5_SaIS5_EEEmiEl: # @_ZNK9__gnu_cxx17__normal_iteratorIPSt10unique_ptrI10SensorBaseSt14default_deleteIS2_EESt6vectorIS5_SaIS5_EEEmiEl
	.cfi_startproc
# %bb.0:
	pushq	%rbp
	.cfi_def_cfa_offset 16
	.cfi_offset %rbp, -16
	movq	%rsp, %rbp
	.cfi_def_cfa_register %rbp
	subq	$32, %rsp
	movq	%rdi, -16(%rbp)
	movq	%rsi, -24(%rbp)
	movq	-16(%rbp), %rax
	movq	(%rax), %rax
	xorl	%ecx, %ecx
                                        # kill: def $rcx killed $ecx
	subq	-24(%rbp), %rcx
	shlq	$3, %rcx
	addq	%rcx, %rax
	movq	%rax, -32(%rbp)
	leaq	-8(%rbp), %rdi
	leaq	-32(%rbp), %rsi
	callq	_ZN9__gnu_cxx17__normal_iteratorIPSt10unique_ptrI10SensorBaseSt14default_deleteIS2_EESt6vectorIS5_SaIS5_EEEC2ERKS6_
	movq	-8(%rbp), %rax
	addq	$32, %rsp
	popq	%rbp
	.cfi_def_cfa %rsp, 8
	retq
.Lfunc_end79:
	.size	_ZNK9__gnu_cxx17__normal_iteratorIPSt10unique_ptrI10SensorBaseSt14default_deleteIS2_EESt6vectorIS5_SaIS5_EEEmiEl, .Lfunc_end79-_ZNK9__gnu_cxx17__normal_iteratorIPSt10unique_ptrI10SensorBaseSt14default_deleteIS2_EESt6vectorIS5_SaIS5_EEEmiEl
	.cfi_endproc
                                        # -- End function
	.section	.text._ZNK9__gnu_cxx17__normal_iteratorIPSt10unique_ptrI10SensorBaseSt14default_deleteIS2_EESt6vectorIS5_SaIS5_EEEdeEv,"axG",@progbits,_ZNK9__gnu_cxx17__normal_iteratorIPSt10unique_ptrI10SensorBaseSt14default_deleteIS2_EESt6vectorIS5_SaIS5_EEEdeEv,comdat
	.weak	_ZNK9__gnu_cxx17__normal_iteratorIPSt10unique_ptrI10SensorBaseSt14default_deleteIS2_EESt6vectorIS5_SaIS5_EEEdeEv # -- Begin function _ZNK9__gnu_cxx17__normal_iteratorIPSt10unique_ptrI10SensorBaseSt14default_deleteIS2_EESt6vectorIS5_SaIS5_EEEdeEv
	.p2align	4, 0x90
	.type	_ZNK9__gnu_cxx17__normal_iteratorIPSt10unique_ptrI10SensorBaseSt14default_deleteIS2_EESt6vectorIS5_SaIS5_EEEdeEv,@function
_ZNK9__gnu_cxx17__normal_iteratorIPSt10unique_ptrI10SensorBaseSt14default_deleteIS2_EESt6vectorIS5_SaIS5_EEEdeEv: # @_ZNK9__gnu_cxx17__normal_iteratorIPSt10unique_ptrI10SensorBaseSt14default_deleteIS2_EESt6vectorIS5_SaIS5_EEEdeEv
	.cfi_startproc
# %bb.0:
	pushq	%rbp
	.cfi_def_cfa_offset 16
	.cfi_offset %rbp, -16
	movq	%rsp, %rbp
	.cfi_def_cfa_register %rbp
	movq	%rdi, -8(%rbp)
	movq	-8(%rbp), %rax
	movq	(%rax), %rax
	popq	%rbp
	.cfi_def_cfa %rsp, 8
	retq
.Lfunc_end80:
	.size	_ZNK9__gnu_cxx17__normal_iteratorIPSt10unique_ptrI10SensorBaseSt14default_deleteIS2_EESt6vectorIS5_SaIS5_EEEdeEv, .Lfunc_end80-_ZNK9__gnu_cxx17__normal_iteratorIPSt10unique_ptrI10SensorBaseSt14default_deleteIS2_EESt6vectorIS5_SaIS5_EEEdeEv
	.cfi_endproc
                                        # -- End function
	.section	.text._ZNSt6vectorISt10unique_ptrI10SensorBaseSt14default_deleteIS1_EESaIS4_EE7reserveEm,"axG",@progbits,_ZNSt6vectorISt10unique_ptrI10SensorBaseSt14default_deleteIS1_EESaIS4_EE7reserveEm,comdat
	.weak	_ZNSt6vectorISt10unique_ptrI10SensorBaseSt14default_deleteIS1_EESaIS4_EE7reserveEm # -- Begin function _ZNSt6vectorISt10unique_ptrI10SensorBaseSt14default_deleteIS1_EESaIS4_EE7reserveEm
	.p2align	4, 0x90
	.type	_ZNSt6vectorISt10unique_ptrI10SensorBaseSt14default_deleteIS1_EESaIS4_EE7reserveEm,@function
_ZNSt6vectorISt10unique_ptrI10SensorBaseSt14default_deleteIS1_EESaIS4_EE7reserveEm: # @_ZNSt6vectorISt10unique_ptrI10SensorBaseSt14default_deleteIS1_EESaIS4_EE7reserveEm
	.cfi_startproc
# %bb.0:
	pushq	%rbp
	.cfi_def_cfa_offset 16
	.cfi_offset %rbp, -16
	movq	%rsp, %rbp
	.cfi_def_cfa_register %rbp
	subq	$80, %rsp
	movq	%rdi, -8(%rbp)
	movq	%rsi, -16(%rbp)
	movq	-8(%rbp), %rdi
	movq	%rdi, -48(%rbp)                 # 8-byte Spill
	movq	-16(%rbp), %rax
	movq	%rax, -40(%rbp)                 # 8-byte Spill
	callq	_ZNKSt6vectorISt10unique_ptrI10SensorBaseSt14default_deleteIS1_EESaIS4_EE8max_sizeEv
	movq	%rax, %rcx
	movq	-40(%rbp), %rax                 # 8-byte Reload
	cmpq	%rcx, %rax
	jbe	.LBB81_2
# %bb.1:
	leaq	.L.str.9(%rip), %rdi
	callq	_ZSt20__throw_length_errorPKc@PLT
.LBB81_2:
	movq	-48(%rbp), %rdi                 # 8-byte Reload
	callq	_ZNKSt6vectorISt10unique_ptrI10SensorBaseSt14default_deleteIS1_EESaIS4_EE8capacityEv
	cmpq	-16(%rbp), %rax
	jae	.LBB81_4
# %bb.3:
	movq	-48(%rbp), %rdi                 # 8-byte Reload
	callq	_ZNKSt6vectorISt10unique_ptrI10SensorBaseSt14default_deleteIS1_EESaIS4_EE4sizeEv
	movq	-48(%rbp), %rdi                 # 8-byte Reload
	movq	%rax, -24(%rbp)
	movq	-16(%rbp), %rsi
	callq	_ZNSt12_Vector_baseISt10unique_ptrI10SensorBaseSt14default_deleteIS1_EESaIS4_EE11_M_allocateEm
	movq	-48(%rbp), %rdi                 # 8-byte Reload
	movq	%rax, -32(%rbp)
	movq	(%rdi), %rax
	movq	%rax, -72(%rbp)                 # 8-byte Spill
	movq	8(%rdi), %rax
	movq	%rax, -64(%rbp)                 # 8-byte Spill
	movq	-32(%rbp), %rax
	movq	%rax, -56(%rbp)                 # 8-byte Spill
	callq	_ZNSt12_Vector_baseISt10unique_ptrI10SensorBaseSt14default_deleteIS1_EESaIS4_EE19_M_get_Tp_allocatorEv
	movq	-72(%rbp), %rdi                 # 8-byte Reload
	movq	-64(%rbp), %rsi                 # 8-byte Reload
	movq	-56(%rbp), %rdx                 # 8-byte Reload
	movq	%rax, %rcx
	callq	_ZNSt6vectorISt10unique_ptrI10SensorBaseSt14default_deleteIS1_EESaIS4_EE11_S_relocateEPS4_S7_S7_RS5_
                                        # kill: def $rcx killed $rax
	movq	-48(%rbp), %rax                 # 8-byte Reload
	movq	%rax, %rdi
	movq	(%rax), %rsi
	movq	16(%rax), %rdx
	movq	(%rax), %rax
	subq	%rax, %rdx
	sarq	$3, %rdx
	callq	_ZNSt12_Vector_baseISt10unique_ptrI10SensorBaseSt14default_deleteIS1_EESaIS4_EE13_M_deallocateEPS4_m
	movq	-48(%rbp), %rax                 # 8-byte Reload
	movq	-32(%rbp), %rcx
	movq	%rcx, (%rax)
	movq	-32(%rbp), %rcx
	movq	-24(%rbp), %rdx
	shlq	$3, %rdx
	addq	%rdx, %rcx
	movq	%rcx, 8(%rax)
	movq	(%rax), %rcx
	movq	-16(%rbp), %rdx
	shlq	$3, %rdx
	addq	%rdx, %rcx
	movq	%rcx, 16(%rax)
.LBB81_4:
	addq	$80, %rsp
	popq	%rbp
	.cfi_def_cfa %rsp, 8
	retq
.Lfunc_end81:
	.size	_ZNSt6vectorISt10unique_ptrI10SensorBaseSt14default_deleteIS1_EESaIS4_EE7reserveEm, .Lfunc_end81-_ZNSt6vectorISt10unique_ptrI10SensorBaseSt14default_deleteIS1_EESaIS4_EE7reserveEm
	.cfi_endproc
                                        # -- End function
	.section	.text._ZN9__gnu_cxxeqIPSt10unique_ptrI10SensorBaseSt14default_deleteIS2_EESt6vectorIS5_SaIS5_EEEEbRKNS_17__normal_iteratorIT_T0_EESF_,"axG",@progbits,_ZN9__gnu_cxxeqIPSt10unique_ptrI10SensorBaseSt14default_deleteIS2_EESt6vectorIS5_SaIS5_EEEEbRKNS_17__normal_iteratorIT_T0_EESF_,comdat
	.weak	_ZN9__gnu_cxxeqIPSt10unique_ptrI10SensorBaseSt14default_deleteIS2_EESt6vectorIS5_SaIS5_EEEEbRKNS_17__normal_iteratorIT_T0_EESF_ # -- Begin function _ZN9__gnu_cxxeqIPSt10unique_ptrI10SensorBaseSt14default_deleteIS2_EESt6vectorIS5_SaIS5_EEEEbRKNS_17__normal_iteratorIT_T0_EESF_
	.p2align	4, 0x90
	.type	_ZN9__gnu_cxxeqIPSt10unique_ptrI10SensorBaseSt14default_deleteIS2_EESt6vectorIS5_SaIS5_EEEEbRKNS_17__normal_iteratorIT_T0_EESF_,@function
_ZN9__gnu_cxxeqIPSt10unique_ptrI10SensorBaseSt14default_deleteIS2_EESt6vectorIS5_SaIS5_EEEEbRKNS_17__normal_iteratorIT_T0_EESF_: # @_ZN9__gnu_cxxeqIPSt10unique_ptrI10SensorBaseSt14default_deleteIS2_EESt6vectorIS5_SaIS5_EEEEbRKNS_17__normal_iteratorIT_T0_EESF_
	.cfi_startproc
# %bb.0:
	pushq	%rbp
	.cfi_def_cfa_offset 16
	.cfi_offset %rbp, -16
	movq	%rsp, %rbp
	.cfi_def_cfa_register %rbp
	subq	$32, %rsp
	movq	%rdi, -8(%rbp)
	movq	%rsi, -16(%rbp)
	movq	-8(%rbp), %rdi
	callq	_ZNK9__gnu_cxx17__normal_iteratorIPSt10unique_ptrI10SensorBaseSt14default_deleteIS2_EESt6vectorIS5_SaIS5_EEE4baseEv
	movq	(%rax), %rax
	movq	%rax, -24(%rbp)                 # 8-byte Spill
	movq	-16(%rbp), %rdi
	callq	_ZNK9__gnu_cxx17__normal_iteratorIPSt10unique_ptrI10SensorBaseSt14default_deleteIS2_EESt6vectorIS5_SaIS5_EEE4baseEv
	movq	%rax, %rcx
	movq	-24(%rbp), %rax                 # 8-byte Reload
	cmpq	(%rcx), %rax
	sete	%al
	andb	$1, %al
	movzbl	%al, %eax
	addq	$32, %rsp
	popq	%rbp
	.cfi_def_cfa %rsp, 8
	retq
.Lfunc_end82:
	.size	_ZN9__gnu_cxxeqIPSt10unique_ptrI10SensorBaseSt14default_deleteIS2_EESt6vectorIS5_SaIS5_EEEEbRKNS_17__normal_iteratorIT_T0_EESF_, .Lfunc_end82-_ZN9__gnu_cxxeqIPSt10unique_ptrI10SensorBaseSt14default_deleteIS2_EESt6vectorIS5_SaIS5_EEEEbRKNS_17__normal_iteratorIT_T0_EESF_
	.cfi_endproc
                                        # -- End function
	.section	.text._ZN9__gnu_cxx17__normal_iteratorIPSt10unique_ptrI10SensorBaseSt14default_deleteIS2_EESt6vectorIS5_SaIS5_EEEppEv,"axG",@progbits,_ZN9__gnu_cxx17__normal_iteratorIPSt10unique_ptrI10SensorBaseSt14default_deleteIS2_EESt6vectorIS5_SaIS5_EEEppEv,comdat
	.weak	_ZN9__gnu_cxx17__normal_iteratorIPSt10unique_ptrI10SensorBaseSt14default_deleteIS2_EESt6vectorIS5_SaIS5_EEEppEv # -- Begin function _ZN9__gnu_cxx17__normal_iteratorIPSt10unique_ptrI10SensorBaseSt14default_deleteIS2_EESt6vectorIS5_SaIS5_EEEppEv
	.p2align	4, 0x90
	.type	_ZN9__gnu_cxx17__normal_iteratorIPSt10unique_ptrI10SensorBaseSt14default_deleteIS2_EESt6vectorIS5_SaIS5_EEEppEv,@function
_ZN9__gnu_cxx17__normal_iteratorIPSt10unique_ptrI10SensorBaseSt14default_deleteIS2_EESt6vectorIS5_SaIS5_EEEppEv: # @_ZN9__gnu_cxx17__normal_iteratorIPSt10unique_ptrI10SensorBaseSt14default_deleteIS2_EESt6vectorIS5_SaIS5_EEEppEv
	.cfi_startproc
# %bb.0:
	pushq	%rbp
	.cfi_def_cfa_offset 16
	.cfi_offset %rbp, -16
	movq	%rsp, %rbp
	.cfi_def_cfa_register %rbp
	movq	%rdi, -8(%rbp)
	movq	-8(%rbp), %rax
	movq	(%rax), %rcx
	addq	$8, %rcx
	movq	%rcx, (%rax)
	popq	%rbp
	.cfi_def_cfa %rsp, 8
	retq
.Lfunc_end83:
	.size	_ZN9__gnu_cxx17__normal_iteratorIPSt10unique_ptrI10SensorBaseSt14default_deleteIS2_EESt6vectorIS5_SaIS5_EEEppEv, .Lfunc_end83-_ZN9__gnu_cxx17__normal_iteratorIPSt10unique_ptrI10SensorBaseSt14default_deleteIS2_EESt6vectorIS5_SaIS5_EEEppEv
	.cfi_endproc
                                        # -- End function
	.section	.text._ZNSt6vectorISt10unique_ptrI10SensorBaseSt14default_deleteIS1_EESaIS4_EE5clearEv,"axG",@progbits,_ZNSt6vectorISt10unique_ptrI10SensorBaseSt14default_deleteIS1_EESaIS4_EE5clearEv,comdat
	.weak	_ZNSt6vectorISt10unique_ptrI10SensorBaseSt14default_deleteIS1_EESaIS4_EE5clearEv # -- Begin function _ZNSt6vectorISt10unique_ptrI10SensorBaseSt14default_deleteIS1_EESaIS4_EE5clearEv
	.p2align	4, 0x90
	.type	_ZNSt6vectorISt10unique_ptrI10SensorBaseSt14default_deleteIS1_EESaIS4_EE5clearEv,@function
_ZNSt6vectorISt10unique_ptrI10SensorBaseSt14default_deleteIS1_EESaIS4_EE5clearEv: # @_ZNSt6vectorISt10unique_ptrI10SensorBaseSt14default_deleteIS1_EESaIS4_EE5clearEv
	.cfi_startproc
# %bb.0:
	pushq	%rbp
	.cfi_def_cfa_offset 16
	.cfi_offset %rbp, -16
	movq	%rsp, %rbp
	.cfi_def_cfa_register %rbp
	subq	$16, %rsp
	movq	%rdi, -8(%rbp)
	movq	-8(%rbp), %rdi
	movq	(%rdi), %rsi
	callq	_ZNSt6vectorISt10unique_ptrI10SensorBaseSt14default_deleteIS1_EESaIS4_EE15_M_erase_at_endEPS4_
	addq	$16, %rsp
	popq	%rbp
	.cfi_def_cfa %rsp, 8
	retq
.Lfunc_end84:
	.size	_ZNSt6vectorISt10unique_ptrI10SensorBaseSt14default_deleteIS1_EESaIS4_EE5clearEv, .Lfunc_end84-_ZNSt6vectorISt10unique_ptrI10SensorBaseSt14default_deleteIS1_EESaIS4_EE5clearEv
	.cfi_endproc
                                        # -- End function
	.section	.text._ZNKSt6vectorISt10unique_ptrI10SensorBaseSt14default_deleteIS1_EESaIS4_EE8capacityEv,"axG",@progbits,_ZNKSt6vectorISt10unique_ptrI10SensorBaseSt14default_deleteIS1_EESaIS4_EE8capacityEv,comdat
	.weak	_ZNKSt6vectorISt10unique_ptrI10SensorBaseSt14default_deleteIS1_EESaIS4_EE8capacityEv # -- Begin function _ZNKSt6vectorISt10unique_ptrI10SensorBaseSt14default_deleteIS1_EESaIS4_EE8capacityEv
	.p2align	4, 0x90
	.type	_ZNKSt6vectorISt10unique_ptrI10SensorBaseSt14default_deleteIS1_EESaIS4_EE8capacityEv,@function
_ZNKSt6vectorISt10unique_ptrI10SensorBaseSt14default_deleteIS1_EESaIS4_EE8capacityEv: # @_ZNKSt6vectorISt10unique_ptrI10SensorBaseSt14default_deleteIS1_EESaIS4_EE8capacityEv
	.cfi_startproc
# %bb.0:
	pushq	%rbp
	.cfi_def_cfa_offset 16
	.cfi_offset %rbp, -16
	movq	%rsp, %rbp
	.cfi_def_cfa_register %rbp
	movq	%rdi, -8(%rbp)
	movq	-8(%rbp), %rcx
	movq	16(%rcx), %rax
	movq	(%rcx), %rcx
	subq	%rcx, %rax
	sarq	$3, %rax
	popq	%rbp
	.cfi_def_cfa %rsp, 8
	retq
.Lfunc_end85:
	.size	_ZNKSt6vectorISt10unique_ptrI10SensorBaseSt14default_deleteIS1_EESaIS4_EE8capacityEv, .Lfunc_end85-_ZNKSt6vectorISt10unique_ptrI10SensorBaseSt14default_deleteIS1_EESaIS4_EE8capacityEv
	.cfi_endproc
                                        # -- End function
	.section	.text._ZNSt6vectorISt10unique_ptrI10SensorBaseSt14default_deleteIS1_EESaIS4_EE15_M_erase_at_endEPS4_,"axG",@progbits,_ZNSt6vectorISt10unique_ptrI10SensorBaseSt14default_deleteIS1_EESaIS4_EE15_M_erase_at_endEPS4_,comdat
	.weak	_ZNSt6vectorISt10unique_ptrI10SensorBaseSt14default_deleteIS1_EESaIS4_EE15_M_erase_at_endEPS4_ # -- Begin function _ZNSt6vectorISt10unique_ptrI10SensorBaseSt14default_deleteIS1_EESaIS4_EE15_M_erase_at_endEPS4_
	.p2align	4, 0x90
	.type	_ZNSt6vectorISt10unique_ptrI10SensorBaseSt14default_deleteIS1_EESaIS4_EE15_M_erase_at_endEPS4_,@function
_ZNSt6vectorISt10unique_ptrI10SensorBaseSt14default_deleteIS1_EESaIS4_EE15_M_erase_at_endEPS4_: # @_ZNSt6vectorISt10unique_ptrI10SensorBaseSt14default_deleteIS1_EESaIS4_EE15_M_erase_at_endEPS4_
.Lfunc_begin20:
	.cfi_startproc
	.cfi_personality 155, DW.ref.__gxx_personality_v0
	.cfi_lsda 27, .Lexception20
# %bb.0:
	pushq	%rbp
	.cfi_def_cfa_offset 16
	.cfi_offset %rbp, -16
	movq	%rsp, %rbp
	.cfi_def_cfa_register %rbp
	subq	$80, %rsp
	movq	%rdi, -32(%rbp)
	movq	%rsi, -40(%rbp)
	movq	-32(%rbp), %rax
	movq	%rax, -56(%rbp)                 # 8-byte Spill
	movq	8(%rax), %rax
	movq	-40(%rbp), %rcx
	subq	%rcx, %rax
	sarq	$3, %rax
	movq	%rax, -48(%rbp)
	cmpq	$0, -48(%rbp)
	je	.LBB86_4
# %bb.1:
	movq	-56(%rbp), %rdi                 # 8-byte Reload
	movq	-40(%rbp), %rax
	movq	%rax, -72(%rbp)                 # 8-byte Spill
	movq	8(%rdi), %rax
	movq	%rax, -64(%rbp)                 # 8-byte Spill
	callq	_ZNSt12_Vector_baseISt10unique_ptrI10SensorBaseSt14default_deleteIS1_EESaIS4_EE19_M_get_Tp_allocatorEv
	movq	-72(%rbp), %rdx                 # 8-byte Reload
	movq	-64(%rbp), %rcx                 # 8-byte Reload
	movq	%rdx, -8(%rbp)
	movq	%rcx, -16(%rbp)
	movq	%rax, -24(%rbp)
	movq	-8(%rbp), %rdi
	movq	-16(%rbp), %rsi
.Ltmp126:
	callq	_ZSt8_DestroyIPSt10unique_ptrI10SensorBaseSt14default_deleteIS1_EEEvT_S6_
.Ltmp127:
	jmp	.LBB86_2
.LBB86_2:
	jmp	.LBB86_3
.LBB86_3:
	movq	-56(%rbp), %rax                 # 8-byte Reload
	movq	-40(%rbp), %rcx
	movq	%rcx, 8(%rax)
.LBB86_4:
	addq	$80, %rsp
	popq	%rbp
	.cfi_def_cfa %rsp, 8
	retq
.LBB86_5:
	.cfi_def_cfa %rbp, 16
.Ltmp128:
	movq	%rax, %rdi
                                        # kill: def $eax killed $edx killed $rdx
	callq	__clang_call_terminate
.Lfunc_end86:
	.size	_ZNSt6vectorISt10unique_ptrI10SensorBaseSt14default_deleteIS1_EESaIS4_EE15_M_erase_at_endEPS4_, .Lfunc_end86-_ZNSt6vectorISt10unique_ptrI10SensorBaseSt14default_deleteIS1_EESaIS4_EE15_M_erase_at_endEPS4_
	.cfi_endproc
	.section	.gcc_except_table._ZNSt6vectorISt10unique_ptrI10SensorBaseSt14default_deleteIS1_EESaIS4_EE15_M_erase_at_endEPS4_,"aG",@progbits,_ZNSt6vectorISt10unique_ptrI10SensorBaseSt14default_deleteIS1_EESaIS4_EE15_M_erase_at_endEPS4_,comdat
	.p2align	2
GCC_except_table86:
.Lexception20:
	.byte	255                             # @LPStart Encoding = omit
	.byte	155                             # @TType Encoding = indirect pcrel sdata4
	.uleb128 .Lttbase13-.Lttbaseref13
.Lttbaseref13:
	.byte	1                               # Call site Encoding = uleb128
	.uleb128 .Lcst_end20-.Lcst_begin20
.Lcst_begin20:
	.uleb128 .Ltmp126-.Lfunc_begin20        # >> Call Site 1 <<
	.uleb128 .Ltmp127-.Ltmp126              #   Call between .Ltmp126 and .Ltmp127
	.uleb128 .Ltmp128-.Lfunc_begin20        #     jumps to .Ltmp128
	.byte	1                               #   On action: 1
.Lcst_end20:
	.byte	1                               # >> Action Record 1 <<
                                        #   Catch TypeInfo 1
	.byte	0                               #   No further actions
	.p2align	2
                                        # >> Catch TypeInfos <<
	.long	0                               # TypeInfo 1
.Lttbase13:
	.p2align	2
                                        # -- End function
	.section	.text._ZSt8_DestroyIPSt10unique_ptrI10SensorBaseSt14default_deleteIS1_EEEvT_S6_,"axG",@progbits,_ZSt8_DestroyIPSt10unique_ptrI10SensorBaseSt14default_deleteIS1_EEEvT_S6_,comdat
	.weak	_ZSt8_DestroyIPSt10unique_ptrI10SensorBaseSt14default_deleteIS1_EEEvT_S6_ # -- Begin function _ZSt8_DestroyIPSt10unique_ptrI10SensorBaseSt14default_deleteIS1_EEEvT_S6_
	.p2align	4, 0x90
	.type	_ZSt8_DestroyIPSt10unique_ptrI10SensorBaseSt14default_deleteIS1_EEEvT_S6_,@function
_ZSt8_DestroyIPSt10unique_ptrI10SensorBaseSt14default_deleteIS1_EEEvT_S6_: # @_ZSt8_DestroyIPSt10unique_ptrI10SensorBaseSt14default_deleteIS1_EEEvT_S6_
	.cfi_startproc
# %bb.0:
	pushq	%rbp
	.cfi_def_cfa_offset 16
	.cfi_offset %rbp, -16
	movq	%rsp, %rbp
	.cfi_def_cfa_register %rbp
	subq	$16, %rsp
	movq	%rdi, -8(%rbp)
	movq	%rsi, -16(%rbp)
	movq	-8(%rbp), %rdi
	movq	-16(%rbp), %rsi
	callq	_ZNSt12_Destroy_auxILb0EE9__destroyIPSt10unique_ptrI10SensorBaseSt14default_deleteIS3_EEEEvT_S8_
	addq	$16, %rsp
	popq	%rbp
	.cfi_def_cfa %rsp, 8
	retq
.Lfunc_end87:
	.size	_ZSt8_DestroyIPSt10unique_ptrI10SensorBaseSt14default_deleteIS1_EEEvT_S6_, .Lfunc_end87-_ZSt8_DestroyIPSt10unique_ptrI10SensorBaseSt14default_deleteIS1_EEEvT_S6_
	.cfi_endproc
                                        # -- End function
	.section	.text._ZNSt12_Destroy_auxILb0EE9__destroyIPSt10unique_ptrI10SensorBaseSt14default_deleteIS3_EEEEvT_S8_,"axG",@progbits,_ZNSt12_Destroy_auxILb0EE9__destroyIPSt10unique_ptrI10SensorBaseSt14default_deleteIS3_EEEEvT_S8_,comdat
	.weak	_ZNSt12_Destroy_auxILb0EE9__destroyIPSt10unique_ptrI10SensorBaseSt14default_deleteIS3_EEEEvT_S8_ # -- Begin function _ZNSt12_Destroy_auxILb0EE9__destroyIPSt10unique_ptrI10SensorBaseSt14default_deleteIS3_EEEEvT_S8_
	.p2align	4, 0x90
	.type	_ZNSt12_Destroy_auxILb0EE9__destroyIPSt10unique_ptrI10SensorBaseSt14default_deleteIS3_EEEEvT_S8_,@function
_ZNSt12_Destroy_auxILb0EE9__destroyIPSt10unique_ptrI10SensorBaseSt14default_deleteIS3_EEEEvT_S8_: # @_ZNSt12_Destroy_auxILb0EE9__destroyIPSt10unique_ptrI10SensorBaseSt14default_deleteIS3_EEEEvT_S8_
	.cfi_startproc
# %bb.0:
	pushq	%rbp
	.cfi_def_cfa_offset 16
	.cfi_offset %rbp, -16
	movq	%rsp, %rbp
	.cfi_def_cfa_register %rbp
	subq	$16, %rsp
	movq	%rdi, -8(%rbp)
	movq	%rsi, -16(%rbp)
.LBB88_1:                               # =>This Inner Loop Header: Depth=1
	movq	-8(%rbp), %rax
	cmpq	-16(%rbp), %rax
	je	.LBB88_4
# %bb.2:                                #   in Loop: Header=BB88_1 Depth=1
	movq	-8(%rbp), %rdi
	callq	_ZSt11__addressofISt10unique_ptrI10SensorBaseSt14default_deleteIS1_EEEPT_RS5_
	movq	%rax, %rdi
	callq	_ZSt8_DestroyISt10unique_ptrI10SensorBaseSt14default_deleteIS1_EEEvPT_
# %bb.3:                                #   in Loop: Header=BB88_1 Depth=1
	movq	-8(%rbp), %rax
	addq	$8, %rax
	movq	%rax, -8(%rbp)
	jmp	.LBB88_1
.LBB88_4:
	addq	$16, %rsp
	popq	%rbp
	.cfi_def_cfa %rsp, 8
	retq
.Lfunc_end88:
	.size	_ZNSt12_Destroy_auxILb0EE9__destroyIPSt10unique_ptrI10SensorBaseSt14default_deleteIS3_EEEEvT_S8_, .Lfunc_end88-_ZNSt12_Destroy_auxILb0EE9__destroyIPSt10unique_ptrI10SensorBaseSt14default_deleteIS3_EEEEvT_S8_
	.cfi_endproc
                                        # -- End function
	.section	.text._ZSt8_DestroyISt10unique_ptrI10SensorBaseSt14default_deleteIS1_EEEvPT_,"axG",@progbits,_ZSt8_DestroyISt10unique_ptrI10SensorBaseSt14default_deleteIS1_EEEvPT_,comdat
	.weak	_ZSt8_DestroyISt10unique_ptrI10SensorBaseSt14default_deleteIS1_EEEvPT_ # -- Begin function _ZSt8_DestroyISt10unique_ptrI10SensorBaseSt14default_deleteIS1_EEEvPT_
	.p2align	4, 0x90
	.type	_ZSt8_DestroyISt10unique_ptrI10SensorBaseSt14default_deleteIS1_EEEvPT_,@function
_ZSt8_DestroyISt10unique_ptrI10SensorBaseSt14default_deleteIS1_EEEvPT_: # @_ZSt8_DestroyISt10unique_ptrI10SensorBaseSt14default_deleteIS1_EEEvPT_
	.cfi_startproc
# %bb.0:
	pushq	%rbp
	.cfi_def_cfa_offset 16
	.cfi_offset %rbp, -16
	movq	%rsp, %rbp
	.cfi_def_cfa_register %rbp
	subq	$16, %rsp
	movq	%rdi, -8(%rbp)
	movq	-8(%rbp), %rdi
	callq	_ZSt10destroy_atISt10unique_ptrI10SensorBaseSt14default_deleteIS1_EEEvPT_
	addq	$16, %rsp
	popq	%rbp
	.cfi_def_cfa %rsp, 8
	retq
.Lfunc_end89:
	.size	_ZSt8_DestroyISt10unique_ptrI10SensorBaseSt14default_deleteIS1_EEEvPT_, .Lfunc_end89-_ZSt8_DestroyISt10unique_ptrI10SensorBaseSt14default_deleteIS1_EEEvPT_
	.cfi_endproc
                                        # -- End function
	.section	.text._ZNKSt10unique_ptrI10SensorBaseSt14default_deleteIS0_EEptEv,"axG",@progbits,_ZNKSt10unique_ptrI10SensorBaseSt14default_deleteIS0_EEptEv,comdat
	.weak	_ZNKSt10unique_ptrI10SensorBaseSt14default_deleteIS0_EEptEv # -- Begin function _ZNKSt10unique_ptrI10SensorBaseSt14default_deleteIS0_EEptEv
	.p2align	4, 0x90
	.type	_ZNKSt10unique_ptrI10SensorBaseSt14default_deleteIS0_EEptEv,@function
_ZNKSt10unique_ptrI10SensorBaseSt14default_deleteIS0_EEptEv: # @_ZNKSt10unique_ptrI10SensorBaseSt14default_deleteIS0_EEptEv
	.cfi_startproc
# %bb.0:
	pushq	%rbp
	.cfi_def_cfa_offset 16
	.cfi_offset %rbp, -16
	movq	%rsp, %rbp
	.cfi_def_cfa_register %rbp
	subq	$16, %rsp
	movq	%rdi, -8(%rbp)
	movq	-8(%rbp), %rdi
	callq	_ZNKSt10unique_ptrI10SensorBaseSt14default_deleteIS0_EE3getEv
	addq	$16, %rsp
	popq	%rbp
	.cfi_def_cfa %rsp, 8
	retq
.Lfunc_end90:
	.size	_ZNKSt10unique_ptrI10SensorBaseSt14default_deleteIS0_EEptEv, .Lfunc_end90-_ZNKSt10unique_ptrI10SensorBaseSt14default_deleteIS0_EEptEv
	.cfi_endproc
                                        # -- End function
	.section	.text._ZNKSt10unique_ptrI10SensorBaseSt14default_deleteIS0_EE3getEv,"axG",@progbits,_ZNKSt10unique_ptrI10SensorBaseSt14default_deleteIS0_EE3getEv,comdat
	.weak	_ZNKSt10unique_ptrI10SensorBaseSt14default_deleteIS0_EE3getEv # -- Begin function _ZNKSt10unique_ptrI10SensorBaseSt14default_deleteIS0_EE3getEv
	.p2align	4, 0x90
	.type	_ZNKSt10unique_ptrI10SensorBaseSt14default_deleteIS0_EE3getEv,@function
_ZNKSt10unique_ptrI10SensorBaseSt14default_deleteIS0_EE3getEv: # @_ZNKSt10unique_ptrI10SensorBaseSt14default_deleteIS0_EE3getEv
	.cfi_startproc
# %bb.0:
	pushq	%rbp
	.cfi_def_cfa_offset 16
	.cfi_offset %rbp, -16
	movq	%rsp, %rbp
	.cfi_def_cfa_register %rbp
	subq	$16, %rsp
	movq	%rdi, -8(%rbp)
	movq	-8(%rbp), %rdi
	callq	_ZNKSt15__uniq_ptr_implI10SensorBaseSt14default_deleteIS0_EE6_M_ptrEv
	addq	$16, %rsp
	popq	%rbp
	.cfi_def_cfa %rsp, 8
	retq
.Lfunc_end91:
	.size	_ZNKSt10unique_ptrI10SensorBaseSt14default_deleteIS0_EE3getEv, .Lfunc_end91-_ZNKSt10unique_ptrI10SensorBaseSt14default_deleteIS0_EE3getEv
	.cfi_endproc
                                        # -- End function
	.section	.text._ZNKSt15__uniq_ptr_implI10SensorBaseSt14default_deleteIS0_EE6_M_ptrEv,"axG",@progbits,_ZNKSt15__uniq_ptr_implI10SensorBaseSt14default_deleteIS0_EE6_M_ptrEv,comdat
	.weak	_ZNKSt15__uniq_ptr_implI10SensorBaseSt14default_deleteIS0_EE6_M_ptrEv # -- Begin function _ZNKSt15__uniq_ptr_implI10SensorBaseSt14default_deleteIS0_EE6_M_ptrEv
	.p2align	4, 0x90
	.type	_ZNKSt15__uniq_ptr_implI10SensorBaseSt14default_deleteIS0_EE6_M_ptrEv,@function
_ZNKSt15__uniq_ptr_implI10SensorBaseSt14default_deleteIS0_EE6_M_ptrEv: # @_ZNKSt15__uniq_ptr_implI10SensorBaseSt14default_deleteIS0_EE6_M_ptrEv
	.cfi_startproc
# %bb.0:
	pushq	%rbp
	.cfi_def_cfa_offset 16
	.cfi_offset %rbp, -16
	movq	%rsp, %rbp
	.cfi_def_cfa_register %rbp
	subq	$16, %rsp
	movq	%rdi, -8(%rbp)
	movq	-8(%rbp), %rdi
	callq	_ZSt3getILm0EJP10SensorBaseSt14default_deleteIS0_EEERKNSt13tuple_elementIXT_ESt5tupleIJDpT0_EEE4typeERKS8_
	movq	(%rax), %rax
	addq	$16, %rsp
	popq	%rbp
	.cfi_def_cfa %rsp, 8
	retq
.Lfunc_end92:
	.size	_ZNKSt15__uniq_ptr_implI10SensorBaseSt14default_deleteIS0_EE6_M_ptrEv, .Lfunc_end92-_ZNKSt15__uniq_ptr_implI10SensorBaseSt14default_deleteIS0_EE6_M_ptrEv
	.cfi_endproc
                                        # -- End function
	.section	.text._ZSt3getILm0EJP10SensorBaseSt14default_deleteIS0_EEERKNSt13tuple_elementIXT_ESt5tupleIJDpT0_EEE4typeERKS8_,"axG",@progbits,_ZSt3getILm0EJP10SensorBaseSt14default_deleteIS0_EEERKNSt13tuple_elementIXT_ESt5tupleIJDpT0_EEE4typeERKS8_,comdat
	.weak	_ZSt3getILm0EJP10SensorBaseSt14default_deleteIS0_EEERKNSt13tuple_elementIXT_ESt5tupleIJDpT0_EEE4typeERKS8_ # -- Begin function _ZSt3getILm0EJP10SensorBaseSt14default_deleteIS0_EEERKNSt13tuple_elementIXT_ESt5tupleIJDpT0_EEE4typeERKS8_
	.p2align	4, 0x90
	.type	_ZSt3getILm0EJP10SensorBaseSt14default_deleteIS0_EEERKNSt13tuple_elementIXT_ESt5tupleIJDpT0_EEE4typeERKS8_,@function
_ZSt3getILm0EJP10SensorBaseSt14default_deleteIS0_EEERKNSt13tuple_elementIXT_ESt5tupleIJDpT0_EEE4typeERKS8_: # @_ZSt3getILm0EJP10SensorBaseSt14default_deleteIS0_EEERKNSt13tuple_elementIXT_ESt5tupleIJDpT0_EEE4typeERKS8_
	.cfi_startproc
# %bb.0:
	pushq	%rbp
	.cfi_def_cfa_offset 16
	.cfi_offset %rbp, -16
	movq	%rsp, %rbp
	.cfi_def_cfa_register %rbp
	subq	$16, %rsp
	movq	%rdi, -8(%rbp)
	movq	-8(%rbp), %rdi
	callq	_ZSt12__get_helperILm0EP10SensorBaseJSt14default_deleteIS0_EEERKT0_RKSt11_Tuple_implIXT_EJS4_DpT1_EE
	addq	$16, %rsp
	popq	%rbp
	.cfi_def_cfa %rsp, 8
	retq
.Lfunc_end93:
	.size	_ZSt3getILm0EJP10SensorBaseSt14default_deleteIS0_EEERKNSt13tuple_elementIXT_ESt5tupleIJDpT0_EEE4typeERKS8_, .Lfunc_end93-_ZSt3getILm0EJP10SensorBaseSt14default_deleteIS0_EEERKNSt13tuple_elementIXT_ESt5tupleIJDpT0_EEE4typeERKS8_
	.cfi_endproc
                                        # -- End function
	.section	.text._ZSt12__get_helperILm0EP10SensorBaseJSt14default_deleteIS0_EEERKT0_RKSt11_Tuple_implIXT_EJS4_DpT1_EE,"axG",@progbits,_ZSt12__get_helperILm0EP10SensorBaseJSt14default_deleteIS0_EEERKT0_RKSt11_Tuple_implIXT_EJS4_DpT1_EE,comdat
	.weak	_ZSt12__get_helperILm0EP10SensorBaseJSt14default_deleteIS0_EEERKT0_RKSt11_Tuple_implIXT_EJS4_DpT1_EE # -- Begin function _ZSt12__get_helperILm0EP10SensorBaseJSt14default_deleteIS0_EEERKT0_RKSt11_Tuple_implIXT_EJS4_DpT1_EE
	.p2align	4, 0x90
	.type	_ZSt12__get_helperILm0EP10SensorBaseJSt14default_deleteIS0_EEERKT0_RKSt11_Tuple_implIXT_EJS4_DpT1_EE,@function
_ZSt12__get_helperILm0EP10SensorBaseJSt14default_deleteIS0_EEERKT0_RKSt11_Tuple_implIXT_EJS4_DpT1_EE: # @_ZSt12__get_helperILm0EP10SensorBaseJSt14default_deleteIS0_EEERKT0_RKSt11_Tuple_implIXT_EJS4_DpT1_EE
	.cfi_startproc
# %bb.0:
	pushq	%rbp
	.cfi_def_cfa_offset 16
	.cfi_offset %rbp, -16
	movq	%rsp, %rbp
	.cfi_def_cfa_register %rbp
	subq	$16, %rsp
	movq	%rdi, -8(%rbp)
	movq	-8(%rbp), %rdi
	callq	_ZNSt11_Tuple_implILm0EJP10SensorBaseSt14default_deleteIS0_EEE7_M_headERKS4_
	addq	$16, %rsp
	popq	%rbp
	.cfi_def_cfa %rsp, 8
	retq
.Lfunc_end94:
	.size	_ZSt12__get_helperILm0EP10SensorBaseJSt14default_deleteIS0_EEERKT0_RKSt11_Tuple_implIXT_EJS4_DpT1_EE, .Lfunc_end94-_ZSt12__get_helperILm0EP10SensorBaseJSt14default_deleteIS0_EEERKT0_RKSt11_Tuple_implIXT_EJS4_DpT1_EE
	.cfi_endproc
                                        # -- End function
	.section	.text._ZNSt11_Tuple_implILm0EJP10SensorBaseSt14default_deleteIS0_EEE7_M_headERKS4_,"axG",@progbits,_ZNSt11_Tuple_implILm0EJP10SensorBaseSt14default_deleteIS0_EEE7_M_headERKS4_,comdat
	.weak	_ZNSt11_Tuple_implILm0EJP10SensorBaseSt14default_deleteIS0_EEE7_M_headERKS4_ # -- Begin function _ZNSt11_Tuple_implILm0EJP10SensorBaseSt14default_deleteIS0_EEE7_M_headERKS4_
	.p2align	4, 0x90
	.type	_ZNSt11_Tuple_implILm0EJP10SensorBaseSt14default_deleteIS0_EEE7_M_headERKS4_,@function
_ZNSt11_Tuple_implILm0EJP10SensorBaseSt14default_deleteIS0_EEE7_M_headERKS4_: # @_ZNSt11_Tuple_implILm0EJP10SensorBaseSt14default_deleteIS0_EEE7_M_headERKS4_
	.cfi_startproc
# %bb.0:
	pushq	%rbp
	.cfi_def_cfa_offset 16
	.cfi_offset %rbp, -16
	movq	%rsp, %rbp
	.cfi_def_cfa_register %rbp
	subq	$16, %rsp
	movq	%rdi, -8(%rbp)
	movq	-8(%rbp), %rdi
	callq	_ZNSt10_Head_baseILm0EP10SensorBaseLb0EE7_M_headERKS2_
	addq	$16, %rsp
	popq	%rbp
	.cfi_def_cfa %rsp, 8
	retq
.Lfunc_end95:
	.size	_ZNSt11_Tuple_implILm0EJP10SensorBaseSt14default_deleteIS0_EEE7_M_headERKS4_, .Lfunc_end95-_ZNSt11_Tuple_implILm0EJP10SensorBaseSt14default_deleteIS0_EEE7_M_headERKS4_
	.cfi_endproc
                                        # -- End function
	.section	.text._ZNSt10_Head_baseILm0EP10SensorBaseLb0EE7_M_headERKS2_,"axG",@progbits,_ZNSt10_Head_baseILm0EP10SensorBaseLb0EE7_M_headERKS2_,comdat
	.weak	_ZNSt10_Head_baseILm0EP10SensorBaseLb0EE7_M_headERKS2_ # -- Begin function _ZNSt10_Head_baseILm0EP10SensorBaseLb0EE7_M_headERKS2_
	.p2align	4, 0x90
	.type	_ZNSt10_Head_baseILm0EP10SensorBaseLb0EE7_M_headERKS2_,@function
_ZNSt10_Head_baseILm0EP10SensorBaseLb0EE7_M_headERKS2_: # @_ZNSt10_Head_baseILm0EP10SensorBaseLb0EE7_M_headERKS2_
	.cfi_startproc
# %bb.0:
	pushq	%rbp
	.cfi_def_cfa_offset 16
	.cfi_offset %rbp, -16
	movq	%rsp, %rbp
	.cfi_def_cfa_register %rbp
	movq	%rdi, -8(%rbp)
	movq	-8(%rbp), %rax
	popq	%rbp
	.cfi_def_cfa %rsp, 8
	retq
.Lfunc_end96:
	.size	_ZNSt10_Head_baseILm0EP10SensorBaseLb0EE7_M_headERKS2_, .Lfunc_end96-_ZNSt10_Head_baseILm0EP10SensorBaseLb0EE7_M_headERKS2_
	.cfi_endproc
                                        # -- End function
	.section	.text._ZNKSt6vectorISt10unique_ptrI10SensorBaseSt14default_deleteIS1_EESaIS4_EE5beginEv,"axG",@progbits,_ZNKSt6vectorISt10unique_ptrI10SensorBaseSt14default_deleteIS1_EESaIS4_EE5beginEv,comdat
	.weak	_ZNKSt6vectorISt10unique_ptrI10SensorBaseSt14default_deleteIS1_EESaIS4_EE5beginEv # -- Begin function _ZNKSt6vectorISt10unique_ptrI10SensorBaseSt14default_deleteIS1_EESaIS4_EE5beginEv
	.p2align	4, 0x90
	.type	_ZNKSt6vectorISt10unique_ptrI10SensorBaseSt14default_deleteIS1_EESaIS4_EE5beginEv,@function
_ZNKSt6vectorISt10unique_ptrI10SensorBaseSt14default_deleteIS1_EESaIS4_EE5beginEv: # @_ZNKSt6vectorISt10unique_ptrI10SensorBaseSt14default_deleteIS1_EESaIS4_EE5beginEv
	.cfi_startproc
# %bb.0:
	pushq	%rbp
	.cfi_def_cfa_offset 16
	.cfi_offset %rbp, -16
	movq	%rsp, %rbp
	.cfi_def_cfa_register %rbp
	subq	$16, %rsp
	movq	%rdi, -16(%rbp)
	movq	-16(%rbp), %rsi
	leaq	-8(%rbp), %rdi
	callq	_ZN9__gnu_cxx17__normal_iteratorIPKSt10unique_ptrI10SensorBaseSt14default_deleteIS2_EESt6vectorIS5_SaIS5_EEEC2ERKS7_
	movq	-8(%rbp), %rax
	addq	$16, %rsp
	popq	%rbp
	.cfi_def_cfa %rsp, 8
	retq
.Lfunc_end97:
	.size	_ZNKSt6vectorISt10unique_ptrI10SensorBaseSt14default_deleteIS1_EESaIS4_EE5beginEv, .Lfunc_end97-_ZNKSt6vectorISt10unique_ptrI10SensorBaseSt14default_deleteIS1_EESaIS4_EE5beginEv
	.cfi_endproc
                                        # -- End function
	.section	.text._ZNKSt6vectorISt10unique_ptrI10SensorBaseSt14default_deleteIS1_EESaIS4_EE3endEv,"axG",@progbits,_ZNKSt6vectorISt10unique_ptrI10SensorBaseSt14default_deleteIS1_EESaIS4_EE3endEv,comdat
	.weak	_ZNKSt6vectorISt10unique_ptrI10SensorBaseSt14default_deleteIS1_EESaIS4_EE3endEv # -- Begin function _ZNKSt6vectorISt10unique_ptrI10SensorBaseSt14default_deleteIS1_EESaIS4_EE3endEv
	.p2align	4, 0x90
	.type	_ZNKSt6vectorISt10unique_ptrI10SensorBaseSt14default_deleteIS1_EESaIS4_EE3endEv,@function
_ZNKSt6vectorISt10unique_ptrI10SensorBaseSt14default_deleteIS1_EESaIS4_EE3endEv: # @_ZNKSt6vectorISt10unique_ptrI10SensorBaseSt14default_deleteIS1_EESaIS4_EE3endEv
	.cfi_startproc
# %bb.0:
	pushq	%rbp
	.cfi_def_cfa_offset 16
	.cfi_offset %rbp, -16
	movq	%rsp, %rbp
	.cfi_def_cfa_register %rbp
	subq	$16, %rsp
	movq	%rdi, -16(%rbp)
	movq	-16(%rbp), %rsi
	addq	$8, %rsi
	leaq	-8(%rbp), %rdi
	callq	_ZN9__gnu_cxx17__normal_iteratorIPKSt10unique_ptrI10SensorBaseSt14default_deleteIS2_EESt6vectorIS5_SaIS5_EEEC2ERKS7_
	movq	-8(%rbp), %rax
	addq	$16, %rsp
	popq	%rbp
	.cfi_def_cfa %rsp, 8
	retq
.Lfunc_end98:
	.size	_ZNKSt6vectorISt10unique_ptrI10SensorBaseSt14default_deleteIS1_EESaIS4_EE3endEv, .Lfunc_end98-_ZNKSt6vectorISt10unique_ptrI10SensorBaseSt14default_deleteIS1_EESaIS4_EE3endEv
	.cfi_endproc
                                        # -- End function
	.section	.text._ZN9__gnu_cxxeqIPKSt10unique_ptrI10SensorBaseSt14default_deleteIS2_EESt6vectorIS5_SaIS5_EEEEbRKNS_17__normal_iteratorIT_T0_EESG_,"axG",@progbits,_ZN9__gnu_cxxeqIPKSt10unique_ptrI10SensorBaseSt14default_deleteIS2_EESt6vectorIS5_SaIS5_EEEEbRKNS_17__normal_iteratorIT_T0_EESG_,comdat
	.weak	_ZN9__gnu_cxxeqIPKSt10unique_ptrI10SensorBaseSt14default_deleteIS2_EESt6vectorIS5_SaIS5_EEEEbRKNS_17__normal_iteratorIT_T0_EESG_ # -- Begin function _ZN9__gnu_cxxeqIPKSt10unique_ptrI10SensorBaseSt14default_deleteIS2_EESt6vectorIS5_SaIS5_EEEEbRKNS_17__normal_iteratorIT_T0_EESG_
	.p2align	4, 0x90
	.type	_ZN9__gnu_cxxeqIPKSt10unique_ptrI10SensorBaseSt14default_deleteIS2_EESt6vectorIS5_SaIS5_EEEEbRKNS_17__normal_iteratorIT_T0_EESG_,@function
_ZN9__gnu_cxxeqIPKSt10unique_ptrI10SensorBaseSt14default_deleteIS2_EESt6vectorIS5_SaIS5_EEEEbRKNS_17__normal_iteratorIT_T0_EESG_: # @_ZN9__gnu_cxxeqIPKSt10unique_ptrI10SensorBaseSt14default_deleteIS2_EESt6vectorIS5_SaIS5_EEEEbRKNS_17__normal_iteratorIT_T0_EESG_
	.cfi_startproc
# %bb.0:
	pushq	%rbp
	.cfi_def_cfa_offset 16
	.cfi_offset %rbp, -16
	movq	%rsp, %rbp
	.cfi_def_cfa_register %rbp
	subq	$32, %rsp
	movq	%rdi, -8(%rbp)
	movq	%rsi, -16(%rbp)
	movq	-8(%rbp), %rdi
	callq	_ZNK9__gnu_cxx17__normal_iteratorIPKSt10unique_ptrI10SensorBaseSt14default_deleteIS2_EESt6vectorIS5_SaIS5_EEE4baseEv
	movq	(%rax), %rax
	movq	%rax, -24(%rbp)                 # 8-byte Spill
	movq	-16(%rbp), %rdi
	callq	_ZNK9__gnu_cxx17__normal_iteratorIPKSt10unique_ptrI10SensorBaseSt14default_deleteIS2_EESt6vectorIS5_SaIS5_EEE4baseEv
	movq	%rax, %rcx
	movq	-24(%rbp), %rax                 # 8-byte Reload
	cmpq	(%rcx), %rax
	sete	%al
	andb	$1, %al
	movzbl	%al, %eax
	addq	$32, %rsp
	popq	%rbp
	.cfi_def_cfa %rsp, 8
	retq
.Lfunc_end99:
	.size	_ZN9__gnu_cxxeqIPKSt10unique_ptrI10SensorBaseSt14default_deleteIS2_EESt6vectorIS5_SaIS5_EEEEbRKNS_17__normal_iteratorIT_T0_EESG_, .Lfunc_end99-_ZN9__gnu_cxxeqIPKSt10unique_ptrI10SensorBaseSt14default_deleteIS2_EESt6vectorIS5_SaIS5_EEEEbRKNS_17__normal_iteratorIT_T0_EESG_
	.cfi_endproc
                                        # -- End function
	.section	.text._ZNK9__gnu_cxx17__normal_iteratorIPKSt10unique_ptrI10SensorBaseSt14default_deleteIS2_EESt6vectorIS5_SaIS5_EEEdeEv,"axG",@progbits,_ZNK9__gnu_cxx17__normal_iteratorIPKSt10unique_ptrI10SensorBaseSt14default_deleteIS2_EESt6vectorIS5_SaIS5_EEEdeEv,comdat
	.weak	_ZNK9__gnu_cxx17__normal_iteratorIPKSt10unique_ptrI10SensorBaseSt14default_deleteIS2_EESt6vectorIS5_SaIS5_EEEdeEv # -- Begin function _ZNK9__gnu_cxx17__normal_iteratorIPKSt10unique_ptrI10SensorBaseSt14default_deleteIS2_EESt6vectorIS5_SaIS5_EEEdeEv
	.p2align	4, 0x90
	.type	_ZNK9__gnu_cxx17__normal_iteratorIPKSt10unique_ptrI10SensorBaseSt14default_deleteIS2_EESt6vectorIS5_SaIS5_EEEdeEv,@function
_ZNK9__gnu_cxx17__normal_iteratorIPKSt10unique_ptrI10SensorBaseSt14default_deleteIS2_EESt6vectorIS5_SaIS5_EEEdeEv: # @_ZNK9__gnu_cxx17__normal_iteratorIPKSt10unique_ptrI10SensorBaseSt14default_deleteIS2_EESt6vectorIS5_SaIS5_EEEdeEv
	.cfi_startproc
# %bb.0:
	pushq	%rbp
	.cfi_def_cfa_offset 16
	.cfi_offset %rbp, -16
	movq	%rsp, %rbp
	.cfi_def_cfa_register %rbp
	movq	%rdi, -8(%rbp)
	movq	-8(%rbp), %rax
	movq	(%rax), %rax
	popq	%rbp
	.cfi_def_cfa %rsp, 8
	retq
.Lfunc_end100:
	.size	_ZNK9__gnu_cxx17__normal_iteratorIPKSt10unique_ptrI10SensorBaseSt14default_deleteIS2_EESt6vectorIS5_SaIS5_EEEdeEv, .Lfunc_end100-_ZNK9__gnu_cxx17__normal_iteratorIPKSt10unique_ptrI10SensorBaseSt14default_deleteIS2_EESt6vectorIS5_SaIS5_EEEdeEv
	.cfi_endproc
                                        # -- End function
	.section	.text._ZN10SensorBase8describeEv,"axG",@progbits,_ZN10SensorBase8describeEv,comdat
	.weak	_ZN10SensorBase8describeEv      # -- Begin function _ZN10SensorBase8describeEv
	.p2align	4, 0x90
	.type	_ZN10SensorBase8describeEv,@function
_ZN10SensorBase8describeEv:             # @_ZN10SensorBase8describeEv
.Lfunc_begin21:
	.cfi_startproc
	.cfi_personality 155, DW.ref.__gxx_personality_v0
	.cfi_lsda 27, .Lexception21
# %bb.0:
	pushq	%rbp
	.cfi_def_cfa_offset 16
	.cfi_offset %rbp, -16
	movq	%rsp, %rbp
	.cfi_def_cfa_register %rbp
	subq	$128, %rsp
	movq	%rdi, -8(%rbp)
	movq	-8(%rbp), %rdx
	movq	%rdx, -104(%rbp)                # 8-byte Spill
	addq	$48, %rdx
	leaq	-40(%rbp), %rdi
	leaq	-48(%rbp), %rsi
	callq	_ZSt5visitB5cxx11IZN10SensorBase8describeEvEUlOT_E_JRSt7variantIJsidEEEENSt13invoke_resultIS1_JDpNSt13__conditionalIX21is_lvalue_reference_vIT0_EEE4typeIRNSt19variant_alternativeILm0ENSt16remove_referenceIDTclsr9__variantE4__asclsr3stdE7declvalIS9_EEEEE4typeEE4typeEOSI_EEEE4typeES2_DpOS9_
	movq	-104(%rbp), %rax                # 8-byte Reload
	movl	40(%rax), %esi
.Ltmp129:
	leaq	-80(%rbp), %rdi
	callq	_Z9to_stringB5cxx1110SensorType@PLT
.Ltmp130:
	jmp	.LBB101_1
.LBB101_1:
	leaq	-80(%rbp), %rdi
	callq	_ZNKSt7__cxx1112basic_stringIcSt11char_traitsIcESaIcEE5c_strEv
	movq	-104(%rbp), %rdi                # 8-byte Reload
	movq	%rax, -128(%rbp)                # 8-byte Spill
	addq	$8, %rdi
	callq	_ZNKSt7__cxx1112basic_stringIcSt11char_traitsIcESaIcEE5c_strEv
	movq	%rax, %rcx
	movq	-104(%rbp), %rax                # 8-byte Reload
	movq	%rcx, -120(%rbp)                # 8-byte Spill
	movsd	64(%rax), %xmm0                 # xmm0 = mem[0],zero
	movsd	%xmm0, -112(%rbp)               # 8-byte Spill
	leaq	-40(%rbp), %rdi
	callq	_ZNKSt7__cxx1112basic_stringIcSt11char_traitsIcESaIcEE5c_strEv
	movq	-128(%rbp), %rsi                # 8-byte Reload
	movq	-120(%rbp), %rdx                # 8-byte Reload
	movsd	-112(%rbp), %xmm0               # 8-byte Reload
                                        # xmm0 = mem[0],zero
	movq	%rax, %rcx
.Ltmp132:
	leaq	.L.str.10(%rip), %rdi
	movb	$1, %al
	callq	printf@PLT
.Ltmp133:
	jmp	.LBB101_2
.LBB101_2:
	leaq	-80(%rbp), %rdi
	callq	_ZNSt7__cxx1112basic_stringIcSt11char_traitsIcESaIcEED2Ev
	leaq	-40(%rbp), %rdi
	callq	_ZNSt7__cxx1112basic_stringIcSt11char_traitsIcESaIcEED2Ev
	addq	$128, %rsp
	popq	%rbp
	.cfi_def_cfa %rsp, 8
	retq
.LBB101_3:
	.cfi_def_cfa %rbp, 16
.Ltmp131:
	movq	%rax, %rcx
	movl	%edx, %eax
	movq	%rcx, -88(%rbp)
	movl	%eax, -92(%rbp)
	jmp	.LBB101_5
.LBB101_4:
.Ltmp134:
	movq	%rax, %rcx
	movl	%edx, %eax
	movq	%rcx, -88(%rbp)
	movl	%eax, -92(%rbp)
	leaq	-80(%rbp), %rdi
	callq	_ZNSt7__cxx1112basic_stringIcSt11char_traitsIcESaIcEED2Ev
.LBB101_5:
	leaq	-40(%rbp), %rdi
	callq	_ZNSt7__cxx1112basic_stringIcSt11char_traitsIcESaIcEED2Ev
# %bb.6:
	movq	-88(%rbp), %rdi
	callq	_Unwind_Resume@PLT
.Lfunc_end101:
	.size	_ZN10SensorBase8describeEv, .Lfunc_end101-_ZN10SensorBase8describeEv
	.cfi_endproc
	.section	.gcc_except_table._ZN10SensorBase8describeEv,"aG",@progbits,_ZN10SensorBase8describeEv,comdat
	.p2align	2
GCC_except_table101:
.Lexception21:
	.byte	255                             # @LPStart Encoding = omit
	.byte	255                             # @TType Encoding = omit
	.byte	1                               # Call site Encoding = uleb128
	.uleb128 .Lcst_end21-.Lcst_begin21
.Lcst_begin21:
	.uleb128 .Lfunc_begin21-.Lfunc_begin21  # >> Call Site 1 <<
	.uleb128 .Ltmp129-.Lfunc_begin21        #   Call between .Lfunc_begin21 and .Ltmp129
	.byte	0                               #     has no landing pad
	.byte	0                               #   On action: cleanup
	.uleb128 .Ltmp129-.Lfunc_begin21        # >> Call Site 2 <<
	.uleb128 .Ltmp130-.Ltmp129              #   Call between .Ltmp129 and .Ltmp130
	.uleb128 .Ltmp131-.Lfunc_begin21        #     jumps to .Ltmp131
	.byte	0                               #   On action: cleanup
	.uleb128 .Ltmp132-.Lfunc_begin21        # >> Call Site 3 <<
	.uleb128 .Ltmp133-.Ltmp132              #   Call between .Ltmp132 and .Ltmp133
	.uleb128 .Ltmp134-.Lfunc_begin21        #     jumps to .Ltmp134
	.byte	0                               #   On action: cleanup
	.uleb128 .Ltmp133-.Lfunc_begin21        # >> Call Site 4 <<
	.uleb128 .Lfunc_end101-.Ltmp133         #   Call between .Ltmp133 and .Lfunc_end101
	.byte	0                               #     has no landing pad
	.byte	0                               #   On action: cleanup
.Lcst_end21:
	.p2align	2
                                        # -- End function
	.section	.text._ZN9__gnu_cxx17__normal_iteratorIPKSt10unique_ptrI10SensorBaseSt14default_deleteIS2_EESt6vectorIS5_SaIS5_EEEppEv,"axG",@progbits,_ZN9__gnu_cxx17__normal_iteratorIPKSt10unique_ptrI10SensorBaseSt14default_deleteIS2_EESt6vectorIS5_SaIS5_EEEppEv,comdat
	.weak	_ZN9__gnu_cxx17__normal_iteratorIPKSt10unique_ptrI10SensorBaseSt14default_deleteIS2_EESt6vectorIS5_SaIS5_EEEppEv # -- Begin function _ZN9__gnu_cxx17__normal_iteratorIPKSt10unique_ptrI10SensorBaseSt14default_deleteIS2_EESt6vectorIS5_SaIS5_EEEppEv
	.p2align	4, 0x90
	.type	_ZN9__gnu_cxx17__normal_iteratorIPKSt10unique_ptrI10SensorBaseSt14default_deleteIS2_EESt6vectorIS5_SaIS5_EEEppEv,@function
_ZN9__gnu_cxx17__normal_iteratorIPKSt10unique_ptrI10SensorBaseSt14default_deleteIS2_EESt6vectorIS5_SaIS5_EEEppEv: # @_ZN9__gnu_cxx17__normal_iteratorIPKSt10unique_ptrI10SensorBaseSt14default_deleteIS2_EESt6vectorIS5_SaIS5_EEEppEv
	.cfi_startproc
# %bb.0:
	pushq	%rbp
	.cfi_def_cfa_offset 16
	.cfi_offset %rbp, -16
	movq	%rsp, %rbp
	.cfi_def_cfa_register %rbp
	movq	%rdi, -8(%rbp)
	movq	-8(%rbp), %rax
	movq	(%rax), %rcx
	addq	$8, %rcx
	movq	%rcx, (%rax)
	popq	%rbp
	.cfi_def_cfa %rsp, 8
	retq
.Lfunc_end102:
	.size	_ZN9__gnu_cxx17__normal_iteratorIPKSt10unique_ptrI10SensorBaseSt14default_deleteIS2_EESt6vectorIS5_SaIS5_EEEppEv, .Lfunc_end102-_ZN9__gnu_cxx17__normal_iteratorIPKSt10unique_ptrI10SensorBaseSt14default_deleteIS2_EESt6vectorIS5_SaIS5_EEEppEv
	.cfi_endproc
                                        # -- End function
	.section	.text._ZN9__gnu_cxx17__normal_iteratorIPKSt10unique_ptrI10SensorBaseSt14default_deleteIS2_EESt6vectorIS5_SaIS5_EEEC2ERKS7_,"axG",@progbits,_ZN9__gnu_cxx17__normal_iteratorIPKSt10unique_ptrI10SensorBaseSt14default_deleteIS2_EESt6vectorIS5_SaIS5_EEEC2ERKS7_,comdat
	.weak	_ZN9__gnu_cxx17__normal_iteratorIPKSt10unique_ptrI10SensorBaseSt14default_deleteIS2_EESt6vectorIS5_SaIS5_EEEC2ERKS7_ # -- Begin function _ZN9__gnu_cxx17__normal_iteratorIPKSt10unique_ptrI10SensorBaseSt14default_deleteIS2_EESt6vectorIS5_SaIS5_EEEC2ERKS7_
	.p2align	4, 0x90
	.type	_ZN9__gnu_cxx17__normal_iteratorIPKSt10unique_ptrI10SensorBaseSt14default_deleteIS2_EESt6vectorIS5_SaIS5_EEEC2ERKS7_,@function
_ZN9__gnu_cxx17__normal_iteratorIPKSt10unique_ptrI10SensorBaseSt14default_deleteIS2_EESt6vectorIS5_SaIS5_EEEC2ERKS7_: # @_ZN9__gnu_cxx17__normal_iteratorIPKSt10unique_ptrI10SensorBaseSt14default_deleteIS2_EESt6vectorIS5_SaIS5_EEEC2ERKS7_
	.cfi_startproc
# %bb.0:
	pushq	%rbp
	.cfi_def_cfa_offset 16
	.cfi_offset %rbp, -16
	movq	%rsp, %rbp
	.cfi_def_cfa_register %rbp
	movq	%rdi, -8(%rbp)
	movq	%rsi, -16(%rbp)
	movq	-8(%rbp), %rax
	movq	-16(%rbp), %rcx
	movq	(%rcx), %rcx
	movq	%rcx, (%rax)
	popq	%rbp
	.cfi_def_cfa %rsp, 8
	retq
.Lfunc_end103:
	.size	_ZN9__gnu_cxx17__normal_iteratorIPKSt10unique_ptrI10SensorBaseSt14default_deleteIS2_EESt6vectorIS5_SaIS5_EEEC2ERKS7_, .Lfunc_end103-_ZN9__gnu_cxx17__normal_iteratorIPKSt10unique_ptrI10SensorBaseSt14default_deleteIS2_EESt6vectorIS5_SaIS5_EEEC2ERKS7_
	.cfi_endproc
                                        # -- End function
	.section	.text._ZNK9__gnu_cxx17__normal_iteratorIPKSt10unique_ptrI10SensorBaseSt14default_deleteIS2_EESt6vectorIS5_SaIS5_EEE4baseEv,"axG",@progbits,_ZNK9__gnu_cxx17__normal_iteratorIPKSt10unique_ptrI10SensorBaseSt14default_deleteIS2_EESt6vectorIS5_SaIS5_EEE4baseEv,comdat
	.weak	_ZNK9__gnu_cxx17__normal_iteratorIPKSt10unique_ptrI10SensorBaseSt14default_deleteIS2_EESt6vectorIS5_SaIS5_EEE4baseEv # -- Begin function _ZNK9__gnu_cxx17__normal_iteratorIPKSt10unique_ptrI10SensorBaseSt14default_deleteIS2_EESt6vectorIS5_SaIS5_EEE4baseEv
	.p2align	4, 0x90
	.type	_ZNK9__gnu_cxx17__normal_iteratorIPKSt10unique_ptrI10SensorBaseSt14default_deleteIS2_EESt6vectorIS5_SaIS5_EEE4baseEv,@function
_ZNK9__gnu_cxx17__normal_iteratorIPKSt10unique_ptrI10SensorBaseSt14default_deleteIS2_EESt6vectorIS5_SaIS5_EEE4baseEv: # @_ZNK9__gnu_cxx17__normal_iteratorIPKSt10unique_ptrI10SensorBaseSt14default_deleteIS2_EESt6vectorIS5_SaIS5_EEE4baseEv
	.cfi_startproc
# %bb.0:
	pushq	%rbp
	.cfi_def_cfa_offset 16
	.cfi_offset %rbp, -16
	movq	%rsp, %rbp
	.cfi_def_cfa_register %rbp
	movq	%rdi, -8(%rbp)
	movq	-8(%rbp), %rax
	popq	%rbp
	.cfi_def_cfa %rsp, 8
	retq
.Lfunc_end104:
	.size	_ZNK9__gnu_cxx17__normal_iteratorIPKSt10unique_ptrI10SensorBaseSt14default_deleteIS2_EESt6vectorIS5_SaIS5_EEE4baseEv, .Lfunc_end104-_ZNK9__gnu_cxx17__normal_iteratorIPKSt10unique_ptrI10SensorBaseSt14default_deleteIS2_EESt6vectorIS5_SaIS5_EEE4baseEv
	.cfi_endproc
                                        # -- End function
	.section	.text._ZSt5visitB5cxx11IZN10SensorBase8describeEvEUlOT_E_JRSt7variantIJsidEEEENSt13invoke_resultIS1_JDpNSt13__conditionalIX21is_lvalue_reference_vIT0_EEE4typeIRNSt19variant_alternativeILm0ENSt16remove_referenceIDTclsr9__variantE4__asclsr3stdE7declvalIS9_EEEEE4typeEE4typeEOSI_EEEE4typeES2_DpOS9_,"axG",@progbits,_ZSt5visitB5cxx11IZN10SensorBase8describeEvEUlOT_E_JRSt7variantIJsidEEEENSt13invoke_resultIS1_JDpNSt13__conditionalIX21is_lvalue_reference_vIT0_EEE4typeIRNSt19variant_alternativeILm0ENSt16remove_referenceIDTclsr9__variantE4__asclsr3stdE7declvalIS9_EEEEE4typeEE4typeEOSI_EEEE4typeES2_DpOS9_,comdat
	.weak	_ZSt5visitB5cxx11IZN10SensorBase8describeEvEUlOT_E_JRSt7variantIJsidEEEENSt13invoke_resultIS1_JDpNSt13__conditionalIX21is_lvalue_reference_vIT0_EEE4typeIRNSt19variant_alternativeILm0ENSt16remove_referenceIDTclsr9__variantE4__asclsr3stdE7declvalIS9_EEEEE4typeEE4typeEOSI_EEEE4typeES2_DpOS9_ # -- Begin function _ZSt5visitB5cxx11IZN10SensorBase8describeEvEUlOT_E_JRSt7variantIJsidEEEENSt13invoke_resultIS1_JDpNSt13__conditionalIX21is_lvalue_reference_vIT0_EEE4typeIRNSt19variant_alternativeILm0ENSt16remove_referenceIDTclsr9__variantE4__asclsr3stdE7declvalIS9_EEEEE4typeEE4typeEOSI_EEEE4typeES2_DpOS9_
	.p2align	4, 0x90
	.type	_ZSt5visitB5cxx11IZN10SensorBase8describeEvEUlOT_E_JRSt7variantIJsidEEEENSt13invoke_resultIS1_JDpNSt13__conditionalIX21is_lvalue_reference_vIT0_EEE4typeIRNSt19variant_alternativeILm0ENSt16remove_referenceIDTclsr9__variantE4__asclsr3stdE7declvalIS9_EEEEE4typeEE4typeEOSI_EEEE4typeES2_DpOS9_,@function
_ZSt5visitB5cxx11IZN10SensorBase8describeEvEUlOT_E_JRSt7variantIJsidEEEENSt13invoke_resultIS1_JDpNSt13__conditionalIX21is_lvalue_reference_vIT0_EEE4typeIRNSt19variant_alternativeILm0ENSt16remove_referenceIDTclsr9__variantE4__asclsr3stdE7declvalIS9_EEEEE4typeEE4typeEOSI_EEEE4typeES2_DpOS9_: # @_ZSt5visitB5cxx11IZN10SensorBase8describeEvEUlOT_E_JRSt7variantIJsidEEEENSt13invoke_resultIS1_JDpNSt13__conditionalIX21is_lvalue_reference_vIT0_EEE4typeIRNSt19variant_alternativeILm0ENSt16remove_referenceIDTclsr9__variantE4__asclsr3stdE7declvalIS9_EEEEE4typeEE4typeEOSI_EEEE4typeES2_DpOS9_
	.cfi_startproc
# %bb.0:
	pushq	%rbp
	.cfi_def_cfa_offset 16
	.cfi_offset %rbp, -16
	movq	%rsp, %rbp
	.cfi_def_cfa_register %rbp
	subq	$48, %rsp
	movq	%rdi, -48(%rbp)                 # 8-byte Spill
	movq	%rdi, %rax
	movq	%rax, -40(%rbp)                 # 8-byte Spill
	movq	%rdi, -8(%rbp)
	movq	%rsi, -16(%rbp)
	movq	%rdx, -24(%rbp)
	movq	-24(%rbp), %rdi
	callq	_ZNSt8__detail9__variant4__asIJsidEEERSt7variantIJDpT_EES6_
	movq	%rax, %rdi
	callq	_ZNKSt7variantIJsidEE22valueless_by_exceptionEv
	testb	$1, %al
	jne	.LBB105_1
	jmp	.LBB105_2
.LBB105_1:
	leaq	.L.str.11(%rip), %rdi
	callq	_ZSt26__throw_bad_variant_accessPKc
.LBB105_2:
	movb	$1, -25(%rbp)
	movq	-16(%rbp), %rdi
	callq	_ZSt7forwardIZN10SensorBase8describeEvEUlOT_E_ES2_RNSt16remove_referenceIS1_E4typeE
	movq	-48(%rbp), %rdi                 # 8-byte Reload
	movq	%rax, %rsi
	movq	-24(%rbp), %rdx
	callq	_ZSt10__do_visitINSt8__detail9__variant21__deduce_visit_resultINSt7__cxx1112basic_stringIcSt11char_traitsIcESaIcEEEEEZN10SensorBase8describeEvEUlOT_E_JRSt7variantIJsidEEEEDcOT0_DpOT1_
	movq	-40(%rbp), %rax                 # 8-byte Reload
	addq	$48, %rsp
	popq	%rbp
	.cfi_def_cfa %rsp, 8
	retq
.Lfunc_end105:
	.size	_ZSt5visitB5cxx11IZN10SensorBase8describeEvEUlOT_E_JRSt7variantIJsidEEEENSt13invoke_resultIS1_JDpNSt13__conditionalIX21is_lvalue_reference_vIT0_EEE4typeIRNSt19variant_alternativeILm0ENSt16remove_referenceIDTclsr9__variantE4__asclsr3stdE7declvalIS9_EEEEE4typeEE4typeEOSI_EEEE4typeES2_DpOS9_, .Lfunc_end105-_ZSt5visitB5cxx11IZN10SensorBase8describeEvEUlOT_E_JRSt7variantIJsidEEEENSt13invoke_resultIS1_JDpNSt13__conditionalIX21is_lvalue_reference_vIT0_EEE4typeIRNSt19variant_alternativeILm0ENSt16remove_referenceIDTclsr9__variantE4__asclsr3stdE7declvalIS9_EEEEE4typeEE4typeEOSI_EEEE4typeES2_DpOS9_
	.cfi_endproc
                                        # -- End function
	.section	.text._ZNKSt7__cxx1112basic_stringIcSt11char_traitsIcESaIcEE5c_strEv,"axG",@progbits,_ZNKSt7__cxx1112basic_stringIcSt11char_traitsIcESaIcEE5c_strEv,comdat
	.weak	_ZNKSt7__cxx1112basic_stringIcSt11char_traitsIcESaIcEE5c_strEv # -- Begin function _ZNKSt7__cxx1112basic_stringIcSt11char_traitsIcESaIcEE5c_strEv
	.p2align	4, 0x90
	.type	_ZNKSt7__cxx1112basic_stringIcSt11char_traitsIcESaIcEE5c_strEv,@function
_ZNKSt7__cxx1112basic_stringIcSt11char_traitsIcESaIcEE5c_strEv: # @_ZNKSt7__cxx1112basic_stringIcSt11char_traitsIcESaIcEE5c_strEv
	.cfi_startproc
# %bb.0:
	pushq	%rbp
	.cfi_def_cfa_offset 16
	.cfi_offset %rbp, -16
	movq	%rsp, %rbp
	.cfi_def_cfa_register %rbp
	subq	$16, %rsp
	movq	%rdi, -8(%rbp)
	movq	-8(%rbp), %rdi
	callq	_ZNKSt7__cxx1112basic_stringIcSt11char_traitsIcESaIcEE7_M_dataEv
	addq	$16, %rsp
	popq	%rbp
	.cfi_def_cfa %rsp, 8
	retq
.Lfunc_end106:
	.size	_ZNKSt7__cxx1112basic_stringIcSt11char_traitsIcESaIcEE5c_strEv, .Lfunc_end106-_ZNKSt7__cxx1112basic_stringIcSt11char_traitsIcESaIcEE5c_strEv
	.cfi_endproc
                                        # -- End function
	.section	.text._ZNSt8__detail9__variant4__asIJsidEEERSt7variantIJDpT_EES6_,"axG",@progbits,_ZNSt8__detail9__variant4__asIJsidEEERSt7variantIJDpT_EES6_,comdat
	.weak	_ZNSt8__detail9__variant4__asIJsidEEERSt7variantIJDpT_EES6_ # -- Begin function _ZNSt8__detail9__variant4__asIJsidEEERSt7variantIJDpT_EES6_
	.p2align	4, 0x90
	.type	_ZNSt8__detail9__variant4__asIJsidEEERSt7variantIJDpT_EES6_,@function
_ZNSt8__detail9__variant4__asIJsidEEERSt7variantIJDpT_EES6_: # @_ZNSt8__detail9__variant4__asIJsidEEERSt7variantIJDpT_EES6_
	.cfi_startproc
# %bb.0:
	pushq	%rbp
	.cfi_def_cfa_offset 16
	.cfi_offset %rbp, -16
	movq	%rsp, %rbp
	.cfi_def_cfa_register %rbp
	movq	%rdi, -8(%rbp)
	movq	-8(%rbp), %rax
	popq	%rbp
	.cfi_def_cfa %rsp, 8
	retq
.Lfunc_end107:
	.size	_ZNSt8__detail9__variant4__asIJsidEEERSt7variantIJDpT_EES6_, .Lfunc_end107-_ZNSt8__detail9__variant4__asIJsidEEERSt7variantIJDpT_EES6_
	.cfi_endproc
                                        # -- End function
	.section	.text._ZNKSt7variantIJsidEE22valueless_by_exceptionEv,"axG",@progbits,_ZNKSt7variantIJsidEE22valueless_by_exceptionEv,comdat
	.weak	_ZNKSt7variantIJsidEE22valueless_by_exceptionEv # -- Begin function _ZNKSt7variantIJsidEE22valueless_by_exceptionEv
	.p2align	4, 0x90
	.type	_ZNKSt7variantIJsidEE22valueless_by_exceptionEv,@function
_ZNKSt7variantIJsidEE22valueless_by_exceptionEv: # @_ZNKSt7variantIJsidEE22valueless_by_exceptionEv
	.cfi_startproc
# %bb.0:
	pushq	%rbp
	.cfi_def_cfa_offset 16
	.cfi_offset %rbp, -16
	movq	%rsp, %rbp
	.cfi_def_cfa_register %rbp
	subq	$16, %rsp
	movq	%rdi, -8(%rbp)
	movq	-8(%rbp), %rdi
	callq	_ZNKSt8__detail9__variant16_Variant_storageILb1EJsidEE8_M_validEv
	xorb	$-1, %al
	andb	$1, %al
	movzbl	%al, %eax
	addq	$16, %rsp
	popq	%rbp
	.cfi_def_cfa %rsp, 8
	retq
.Lfunc_end108:
	.size	_ZNKSt7variantIJsidEE22valueless_by_exceptionEv, .Lfunc_end108-_ZNKSt7variantIJsidEE22valueless_by_exceptionEv
	.cfi_endproc
                                        # -- End function
	.section	.text._ZSt26__throw_bad_variant_accessPKc,"axG",@progbits,_ZSt26__throw_bad_variant_accessPKc,comdat
	.weak	_ZSt26__throw_bad_variant_accessPKc # -- Begin function _ZSt26__throw_bad_variant_accessPKc
	.p2align	4, 0x90
	.type	_ZSt26__throw_bad_variant_accessPKc,@function
_ZSt26__throw_bad_variant_accessPKc:    # @_ZSt26__throw_bad_variant_accessPKc
	.cfi_startproc
# %bb.0:
	pushq	%rbp
	.cfi_def_cfa_offset 16
	.cfi_offset %rbp, -16
	movq	%rsp, %rbp
	.cfi_def_cfa_register %rbp
	subq	$16, %rsp
	movq	%rdi, -8(%rbp)
	movl	$16, %edi
	callq	__cxa_allocate_exception@PLT
	movq	%rax, %rdi
	movq	%rdi, -16(%rbp)                 # 8-byte Spill
	movq	-8(%rbp), %rsi
	callq	_ZNSt18bad_variant_accessC2EPKc
	movq	-16(%rbp), %rdi                 # 8-byte Reload
	leaq	_ZTISt18bad_variant_access(%rip), %rsi
	leaq	_ZNSt18bad_variant_accessD2Ev(%rip), %rdx
	callq	__cxa_throw@PLT
.Lfunc_end109:
	.size	_ZSt26__throw_bad_variant_accessPKc, .Lfunc_end109-_ZSt26__throw_bad_variant_accessPKc
	.cfi_endproc
                                        # -- End function
	.section	.text._ZSt10__do_visitINSt8__detail9__variant21__deduce_visit_resultINSt7__cxx1112basic_stringIcSt11char_traitsIcESaIcEEEEEZN10SensorBase8describeEvEUlOT_E_JRSt7variantIJsidEEEEDcOT0_DpOT1_,"axG",@progbits,_ZSt10__do_visitINSt8__detail9__variant21__deduce_visit_resultINSt7__cxx1112basic_stringIcSt11char_traitsIcESaIcEEEEEZN10SensorBase8describeEvEUlOT_E_JRSt7variantIJsidEEEEDcOT0_DpOT1_,comdat
	.weak	_ZSt10__do_visitINSt8__detail9__variant21__deduce_visit_resultINSt7__cxx1112basic_stringIcSt11char_traitsIcESaIcEEEEEZN10SensorBase8describeEvEUlOT_E_JRSt7variantIJsidEEEEDcOT0_DpOT1_ # -- Begin function _ZSt10__do_visitINSt8__detail9__variant21__deduce_visit_resultINSt7__cxx1112basic_stringIcSt11char_traitsIcESaIcEEEEEZN10SensorBase8describeEvEUlOT_E_JRSt7variantIJsidEEEEDcOT0_DpOT1_
	.p2align	4, 0x90
	.type	_ZSt10__do_visitINSt8__detail9__variant21__deduce_visit_resultINSt7__cxx1112basic_stringIcSt11char_traitsIcESaIcEEEEEZN10SensorBase8describeEvEUlOT_E_JRSt7variantIJsidEEEEDcOT0_DpOT1_,@function
_ZSt10__do_visitINSt8__detail9__variant21__deduce_visit_resultINSt7__cxx1112basic_stringIcSt11char_traitsIcESaIcEEEEEZN10SensorBase8describeEvEUlOT_E_JRSt7variantIJsidEEEEDcOT0_DpOT1_: # @_ZSt10__do_visitINSt8__detail9__variant21__deduce_visit_resultINSt7__cxx1112basic_stringIcSt11char_traitsIcESaIcEEEEEZN10SensorBase8describeEvEUlOT_E_JRSt7variantIJsidEEEEDcOT0_DpOT1_
	.cfi_startproc
# %bb.0:
	pushq	%rbp
	.cfi_def_cfa_offset 16
	.cfi_offset %rbp, -16
	movq	%rsp, %rbp
	.cfi_def_cfa_register %rbp
	subq	$112, %rsp
	movq	%rdi, -80(%rbp)                 # 8-byte Spill
	movq	%rdi, %rax
	movq	%rax, -72(%rbp)                 # 8-byte Spill
	movq	%rdi, -8(%rbp)
	movq	%rsi, -16(%rbp)
	movq	%rdx, -24(%rbp)
	movq	$11, -32(%rbp)
	movq	$3, -40(%rbp)
	movq	-24(%rbp), %rsi
	xorl	%eax, %eax
                                        # kill: def $al killed $al killed $eax
	leaq	-56(%rbp), %rdi
	callq	_ZZSt10__do_visitINSt8__detail9__variant21__deduce_visit_resultINSt7__cxx1112basic_stringIcSt11char_traitsIcESaIcEEEEEZN10SensorBase8describeEvEUlOT_E_JRSt7variantIJsidEEEEDcOT0_DpOT1_ENKUlSG_zE_clESG_z
	movq	%rax, -48(%rbp)
	movq	-48(%rbp), %rdi
	callq	_ZNKSt7variantIJsidEE5indexEv
	addq	$1, %rax
	movq	%rax, -64(%rbp)                 # 8-byte Spill
# %bb.15:
	movq	-64(%rbp), %rax                 # 8-byte Reload
	leaq	.LJTI110_0(%rip), %rcx
	movslq	(%rcx,%rax,4), %rax
	addq	%rcx, %rax
	jmpq	*%rax
.LBB110_1:
	movq	-16(%rbp), %rdi
	callq	_ZSt7forwardIZN10SensorBase8describeEvEUlOT_E_ES2_RNSt16remove_referenceIS1_E4typeE
	movq	%rax, -88(%rbp)                 # 8-byte Spill
	movq	-48(%rbp), %rdi
	callq	_ZSt7forwardIRSt7variantIJsidEEEOT_RNSt16remove_referenceIS3_E4typeE
	movq	-80(%rbp), %rdi                 # 8-byte Reload
	movq	-88(%rbp), %rsi                 # 8-byte Reload
	movq	%rax, %rdx
	callq	_ZNSt8__detail9__variant17__gen_vtable_implINS0_12_Multi_arrayIPFNS0_21__deduce_visit_resultINSt7__cxx1112basic_stringIcSt11char_traitsIcESaIcEEEEEOZN10SensorBase8describeEvEUlOT_E_RSt7variantIJsidEEEJEEESt16integer_sequenceImJLm0EEEE14__visit_invokeESF_SI_
	jmp	.LBB110_14
.LBB110_2:
	movq	-16(%rbp), %rdi
	callq	_ZSt7forwardIZN10SensorBase8describeEvEUlOT_E_ES2_RNSt16remove_referenceIS1_E4typeE
	movq	%rax, -96(%rbp)                 # 8-byte Spill
	movq	-48(%rbp), %rdi
	callq	_ZSt7forwardIRSt7variantIJsidEEEOT_RNSt16remove_referenceIS3_E4typeE
	movq	-80(%rbp), %rdi                 # 8-byte Reload
	movq	-96(%rbp), %rsi                 # 8-byte Reload
	movq	%rax, %rdx
	callq	_ZNSt8__detail9__variant17__gen_vtable_implINS0_12_Multi_arrayIPFNS0_21__deduce_visit_resultINSt7__cxx1112basic_stringIcSt11char_traitsIcESaIcEEEEEOZN10SensorBase8describeEvEUlOT_E_RSt7variantIJsidEEEJEEESt16integer_sequenceImJLm1EEEE14__visit_invokeESF_SI_
	jmp	.LBB110_14
.LBB110_3:
	movq	-16(%rbp), %rdi
	callq	_ZSt7forwardIZN10SensorBase8describeEvEUlOT_E_ES2_RNSt16remove_referenceIS1_E4typeE
	movq	%rax, -104(%rbp)                # 8-byte Spill
	movq	-48(%rbp), %rdi
	callq	_ZSt7forwardIRSt7variantIJsidEEEOT_RNSt16remove_referenceIS3_E4typeE
	movq	-80(%rbp), %rdi                 # 8-byte Reload
	movq	-104(%rbp), %rsi                # 8-byte Reload
	movq	%rax, %rdx
	callq	_ZNSt8__detail9__variant17__gen_vtable_implINS0_12_Multi_arrayIPFNS0_21__deduce_visit_resultINSt7__cxx1112basic_stringIcSt11char_traitsIcESaIcEEEEEOZN10SensorBase8describeEvEUlOT_E_RSt7variantIJsidEEEJEEESt16integer_sequenceImJLm2EEEE14__visit_invokeESF_SI_
	jmp	.LBB110_14
.LBB110_4:
.LBB110_5:
.LBB110_6:
.LBB110_7:
.LBB110_8:
.LBB110_9:
.LBB110_10:
.LBB110_11:
.LBB110_12:
# %bb.13:
	.cfi_def_cfa %rsp, 8
	.cfi_restore %rbp
.LBB110_14:
	.cfi_def_cfa %rbp, 16
	.cfi_offset %rbp, -16
	movq	-72(%rbp), %rax                 # 8-byte Reload
	addq	$112, %rsp
	popq	%rbp
	.cfi_def_cfa %rsp, 8
	retq
.Lfunc_end110:
	.size	_ZSt10__do_visitINSt8__detail9__variant21__deduce_visit_resultINSt7__cxx1112basic_stringIcSt11char_traitsIcESaIcEEEEEZN10SensorBase8describeEvEUlOT_E_JRSt7variantIJsidEEEEDcOT0_DpOT1_, .Lfunc_end110-_ZSt10__do_visitINSt8__detail9__variant21__deduce_visit_resultINSt7__cxx1112basic_stringIcSt11char_traitsIcESaIcEEEEEZN10SensorBase8describeEvEUlOT_E_JRSt7variantIJsidEEEEDcOT0_DpOT1_
	.cfi_endproc
	.section	.rodata._ZSt10__do_visitINSt8__detail9__variant21__deduce_visit_resultINSt7__cxx1112basic_stringIcSt11char_traitsIcESaIcEEEEEZN10SensorBase8describeEvEUlOT_E_JRSt7variantIJsidEEEEDcOT0_DpOT1_,"aG",@progbits,_ZSt10__do_visitINSt8__detail9__variant21__deduce_visit_resultINSt7__cxx1112basic_stringIcSt11char_traitsIcESaIcEEEEEZN10SensorBase8describeEvEUlOT_E_JRSt7variantIJsidEEEEDcOT0_DpOT1_,comdat
	.p2align	2
.LJTI110_0:
	.long	.LBB110_12-.LJTI110_0
	.long	.LBB110_1-.LJTI110_0
	.long	.LBB110_2-.LJTI110_0
	.long	.LBB110_3-.LJTI110_0
	.long	.LBB110_4-.LJTI110_0
	.long	.LBB110_5-.LJTI110_0
	.long	.LBB110_6-.LJTI110_0
	.long	.LBB110_7-.LJTI110_0
	.long	.LBB110_8-.LJTI110_0
	.long	.LBB110_9-.LJTI110_0
	.long	.LBB110_10-.LJTI110_0
	.long	.LBB110_11-.LJTI110_0
                                        # -- End function
	.section	.text._ZSt7forwardIZN10SensorBase8describeEvEUlOT_E_ES2_RNSt16remove_referenceIS1_E4typeE,"axG",@progbits,_ZSt7forwardIZN10SensorBase8describeEvEUlOT_E_ES2_RNSt16remove_referenceIS1_E4typeE,comdat
	.weak	_ZSt7forwardIZN10SensorBase8describeEvEUlOT_E_ES2_RNSt16remove_referenceIS1_E4typeE # -- Begin function _ZSt7forwardIZN10SensorBase8describeEvEUlOT_E_ES2_RNSt16remove_referenceIS1_E4typeE
	.p2align	4, 0x90
	.type	_ZSt7forwardIZN10SensorBase8describeEvEUlOT_E_ES2_RNSt16remove_referenceIS1_E4typeE,@function
_ZSt7forwardIZN10SensorBase8describeEvEUlOT_E_ES2_RNSt16remove_referenceIS1_E4typeE: # @_ZSt7forwardIZN10SensorBase8describeEvEUlOT_E_ES2_RNSt16remove_referenceIS1_E4typeE
	.cfi_startproc
# %bb.0:
	pushq	%rbp
	.cfi_def_cfa_offset 16
	.cfi_offset %rbp, -16
	movq	%rsp, %rbp
	.cfi_def_cfa_register %rbp
	movq	%rdi, -8(%rbp)
	movq	-8(%rbp), %rax
	popq	%rbp
	.cfi_def_cfa %rsp, 8
	retq
.Lfunc_end111:
	.size	_ZSt7forwardIZN10SensorBase8describeEvEUlOT_E_ES2_RNSt16remove_referenceIS1_E4typeE, .Lfunc_end111-_ZSt7forwardIZN10SensorBase8describeEvEUlOT_E_ES2_RNSt16remove_referenceIS1_E4typeE
	.cfi_endproc
                                        # -- End function
	.section	.text._ZNKSt8__detail9__variant16_Variant_storageILb1EJsidEE8_M_validEv,"axG",@progbits,_ZNKSt8__detail9__variant16_Variant_storageILb1EJsidEE8_M_validEv,comdat
	.weak	_ZNKSt8__detail9__variant16_Variant_storageILb1EJsidEE8_M_validEv # -- Begin function _ZNKSt8__detail9__variant16_Variant_storageILb1EJsidEE8_M_validEv
	.p2align	4, 0x90
	.type	_ZNKSt8__detail9__variant16_Variant_storageILb1EJsidEE8_M_validEv,@function
_ZNKSt8__detail9__variant16_Variant_storageILb1EJsidEE8_M_validEv: # @_ZNKSt8__detail9__variant16_Variant_storageILb1EJsidEE8_M_validEv
	.cfi_startproc
# %bb.0:
	pushq	%rbp
	.cfi_def_cfa_offset 16
	.cfi_offset %rbp, -16
	movq	%rsp, %rbp
	.cfi_def_cfa_register %rbp
	movq	%rdi, -8(%rbp)
	movb	$1, %al
	andb	$1, %al
	movzbl	%al, %eax
	popq	%rbp
	.cfi_def_cfa %rsp, 8
	retq
.Lfunc_end112:
	.size	_ZNKSt8__detail9__variant16_Variant_storageILb1EJsidEE8_M_validEv, .Lfunc_end112-_ZNKSt8__detail9__variant16_Variant_storageILb1EJsidEE8_M_validEv
	.cfi_endproc
                                        # -- End function
	.section	.text._ZNSt18bad_variant_accessC2EPKc,"axG",@progbits,_ZNSt18bad_variant_accessC2EPKc,comdat
	.weak	_ZNSt18bad_variant_accessC2EPKc # -- Begin function _ZNSt18bad_variant_accessC2EPKc
	.p2align	4, 0x90
	.type	_ZNSt18bad_variant_accessC2EPKc,@function
_ZNSt18bad_variant_accessC2EPKc:        # @_ZNSt18bad_variant_accessC2EPKc
	.cfi_startproc
# %bb.0:
	pushq	%rbp
	.cfi_def_cfa_offset 16
	.cfi_offset %rbp, -16
	movq	%rsp, %rbp
	.cfi_def_cfa_register %rbp
	subq	$32, %rsp
	movq	%rdi, -8(%rbp)
	movq	%rsi, -16(%rbp)
	movq	-8(%rbp), %rdi
	movq	%rdi, -24(%rbp)                 # 8-byte Spill
	callq	_ZNSt9exceptionC2Ev
	movq	-24(%rbp), %rax                 # 8-byte Reload
	leaq	_ZTVSt18bad_variant_access(%rip), %rcx
	addq	$16, %rcx
	movq	%rcx, (%rax)
	movq	-16(%rbp), %rcx
	movq	%rcx, 8(%rax)
	addq	$32, %rsp
	popq	%rbp
	.cfi_def_cfa %rsp, 8
	retq
.Lfunc_end113:
	.size	_ZNSt18bad_variant_accessC2EPKc, .Lfunc_end113-_ZNSt18bad_variant_accessC2EPKc
	.cfi_endproc
                                        # -- End function
	.section	.text._ZNSt18bad_variant_accessD2Ev,"axG",@progbits,_ZNSt18bad_variant_accessD2Ev,comdat
	.weak	_ZNSt18bad_variant_accessD2Ev   # -- Begin function _ZNSt18bad_variant_accessD2Ev
	.p2align	4, 0x90
	.type	_ZNSt18bad_variant_accessD2Ev,@function
_ZNSt18bad_variant_accessD2Ev:          # @_ZNSt18bad_variant_accessD2Ev
	.cfi_startproc
# %bb.0:
	pushq	%rbp
	.cfi_def_cfa_offset 16
	.cfi_offset %rbp, -16
	movq	%rsp, %rbp
	.cfi_def_cfa_register %rbp
	subq	$16, %rsp
	movq	%rdi, -8(%rbp)
	movq	-8(%rbp), %rdi
	callq	_ZNSt9exceptionD2Ev@PLT
	addq	$16, %rsp
	popq	%rbp
	.cfi_def_cfa %rsp, 8
	retq
.Lfunc_end114:
	.size	_ZNSt18bad_variant_accessD2Ev, .Lfunc_end114-_ZNSt18bad_variant_accessD2Ev
	.cfi_endproc
                                        # -- End function
	.section	.text._ZNSt9exceptionC2Ev,"axG",@progbits,_ZNSt9exceptionC2Ev,comdat
	.weak	_ZNSt9exceptionC2Ev             # -- Begin function _ZNSt9exceptionC2Ev
	.p2align	4, 0x90
	.type	_ZNSt9exceptionC2Ev,@function
_ZNSt9exceptionC2Ev:                    # @_ZNSt9exceptionC2Ev
	.cfi_startproc
# %bb.0:
	pushq	%rbp
	.cfi_def_cfa_offset 16
	.cfi_offset %rbp, -16
	movq	%rsp, %rbp
	.cfi_def_cfa_register %rbp
	movq	%rdi, -8(%rbp)
	movq	-8(%rbp), %rax
	movq	_ZTVSt9exception@GOTPCREL(%rip), %rcx
	addq	$16, %rcx
	movq	%rcx, (%rax)
	popq	%rbp
	.cfi_def_cfa %rsp, 8
	retq
.Lfunc_end115:
	.size	_ZNSt9exceptionC2Ev, .Lfunc_end115-_ZNSt9exceptionC2Ev
	.cfi_endproc
                                        # -- End function
	.section	.text._ZNSt18bad_variant_accessD0Ev,"axG",@progbits,_ZNSt18bad_variant_accessD0Ev,comdat
	.weak	_ZNSt18bad_variant_accessD0Ev   # -- Begin function _ZNSt18bad_variant_accessD0Ev
	.p2align	4, 0x90
	.type	_ZNSt18bad_variant_accessD0Ev,@function
_ZNSt18bad_variant_accessD0Ev:          # @_ZNSt18bad_variant_accessD0Ev
	.cfi_startproc
# %bb.0:
	pushq	%rbp
	.cfi_def_cfa_offset 16
	.cfi_offset %rbp, -16
	movq	%rsp, %rbp
	.cfi_def_cfa_register %rbp
	subq	$16, %rsp
	movq	%rdi, -8(%rbp)
	movq	-8(%rbp), %rdi
	movq	%rdi, -16(%rbp)                 # 8-byte Spill
	callq	_ZNSt18bad_variant_accessD2Ev
	movq	-16(%rbp), %rdi                 # 8-byte Reload
	callq	_ZdlPv@PLT
	addq	$16, %rsp
	popq	%rbp
	.cfi_def_cfa %rsp, 8
	retq
.Lfunc_end116:
	.size	_ZNSt18bad_variant_accessD0Ev, .Lfunc_end116-_ZNSt18bad_variant_accessD0Ev
	.cfi_endproc
                                        # -- End function
	.section	.text._ZNKSt18bad_variant_access4whatEv,"axG",@progbits,_ZNKSt18bad_variant_access4whatEv,comdat
	.weak	_ZNKSt18bad_variant_access4whatEv # -- Begin function _ZNKSt18bad_variant_access4whatEv
	.p2align	4, 0x90
	.type	_ZNKSt18bad_variant_access4whatEv,@function
_ZNKSt18bad_variant_access4whatEv:      # @_ZNKSt18bad_variant_access4whatEv
	.cfi_startproc
# %bb.0:
	pushq	%rbp
	.cfi_def_cfa_offset 16
	.cfi_offset %rbp, -16
	movq	%rsp, %rbp
	.cfi_def_cfa_register %rbp
	movq	%rdi, -8(%rbp)
	movq	-8(%rbp), %rax
	movq	8(%rax), %rax
	popq	%rbp
	.cfi_def_cfa %rsp, 8
	retq
.Lfunc_end117:
	.size	_ZNKSt18bad_variant_access4whatEv, .Lfunc_end117-_ZNKSt18bad_variant_access4whatEv
	.cfi_endproc
                                        # -- End function
	.section	.text._ZZSt10__do_visitINSt8__detail9__variant21__deduce_visit_resultINSt7__cxx1112basic_stringIcSt11char_traitsIcESaIcEEEEEZN10SensorBase8describeEvEUlOT_E_JRSt7variantIJsidEEEEDcOT0_DpOT1_ENKUlSG_zE_clESG_z,"axG",@progbits,_ZZSt10__do_visitINSt8__detail9__variant21__deduce_visit_resultINSt7__cxx1112basic_stringIcSt11char_traitsIcESaIcEEEEEZN10SensorBase8describeEvEUlOT_E_JRSt7variantIJsidEEEEDcOT0_DpOT1_ENKUlSG_zE_clESG_z,comdat
	.weak	_ZZSt10__do_visitINSt8__detail9__variant21__deduce_visit_resultINSt7__cxx1112basic_stringIcSt11char_traitsIcESaIcEEEEEZN10SensorBase8describeEvEUlOT_E_JRSt7variantIJsidEEEEDcOT0_DpOT1_ENKUlSG_zE_clESG_z # -- Begin function _ZZSt10__do_visitINSt8__detail9__variant21__deduce_visit_resultINSt7__cxx1112basic_stringIcSt11char_traitsIcESaIcEEEEEZN10SensorBase8describeEvEUlOT_E_JRSt7variantIJsidEEEEDcOT0_DpOT1_ENKUlSG_zE_clESG_z
	.p2align	4, 0x90
	.type	_ZZSt10__do_visitINSt8__detail9__variant21__deduce_visit_resultINSt7__cxx1112basic_stringIcSt11char_traitsIcESaIcEEEEEZN10SensorBase8describeEvEUlOT_E_JRSt7variantIJsidEEEEDcOT0_DpOT1_ENKUlSG_zE_clESG_z,@function
_ZZSt10__do_visitINSt8__detail9__variant21__deduce_visit_resultINSt7__cxx1112basic_stringIcSt11char_traitsIcESaIcEEEEEZN10SensorBase8describeEvEUlOT_E_JRSt7variantIJsidEEEEDcOT0_DpOT1_ENKUlSG_zE_clESG_z: # @_ZZSt10__do_visitINSt8__detail9__variant21__deduce_visit_resultINSt7__cxx1112basic_stringIcSt11char_traitsIcESaIcEEEEEZN10SensorBase8describeEvEUlOT_E_JRSt7variantIJsidEEEEDcOT0_DpOT1_ENKUlSG_zE_clESG_z
	.cfi_startproc
# %bb.0:
	pushq	%rbp
	.cfi_def_cfa_offset 16
	.cfi_offset %rbp, -16
	movq	%rsp, %rbp
	.cfi_def_cfa_register %rbp
	movq	%rdi, -8(%rbp)
	movq	%rsi, -16(%rbp)
	movq	-16(%rbp), %rax
	popq	%rbp
	.cfi_def_cfa %rsp, 8
	retq
.Lfunc_end118:
	.size	_ZZSt10__do_visitINSt8__detail9__variant21__deduce_visit_resultINSt7__cxx1112basic_stringIcSt11char_traitsIcESaIcEEEEEZN10SensorBase8describeEvEUlOT_E_JRSt7variantIJsidEEEEDcOT0_DpOT1_ENKUlSG_zE_clESG_z, .Lfunc_end118-_ZZSt10__do_visitINSt8__detail9__variant21__deduce_visit_resultINSt7__cxx1112basic_stringIcSt11char_traitsIcESaIcEEEEEZN10SensorBase8describeEvEUlOT_E_JRSt7variantIJsidEEEEDcOT0_DpOT1_ENKUlSG_zE_clESG_z
	.cfi_endproc
                                        # -- End function
